

Microchip MPLAB XC8 Assembler V2.40 build 20220703182018 
                                                                                               Wed Jul 26 13:58:43 2023

Microchip MPLAB XC8 C Compiler v2.40 (Free license) build 20220703182018 Og1 
     1                           	processor	18F4620
     2                           	fnconf	rparam,??,?,0
     3                           	pagewidth 120
     4                           	opt	flic
     5                           	psect	idataCOMRAM,global,class=CODE,delta=1,noexec
     6                           	psect	smallconst,global,reloc=2,class=SMALLCONST,delta=1,noexec
     7                           	psect	nvCOMRAM,global,class=COMRAM,space=1,delta=1,lowdata,noexec
     8                           	psect	cinit,global,reloc=2,class=CODE,delta=1
     9                           	psect	bssCOMRAM,global,class=COMRAM,space=1,delta=1,lowdata,noexec
    10                           	psect	dataCOMRAM,global,class=COMRAM,space=1,delta=1,lowdata,noexec
    11                           	psect	cstackCOMRAM,global,class=COMRAM,space=1,delta=1,lowdata,noexec
    12                           	psect	text0,global,reloc=2,class=CODE,delta=1
    13                           	psect	text1,global,reloc=2,class=CODE,delta=1
    14                           	psect	text2,global,reloc=2,class=CODE,delta=1
    15                           	psect	text3,global,reloc=2,class=CODE,delta=1
    16                           	psect	text4,global,reloc=2,class=CODE,delta=1
    17                           	psect	text5,global,reloc=2,class=CODE,delta=1
    18                           	psect	text6,global,reloc=2,class=CODE,delta=1
    19                           	psect	text7,global,reloc=2,class=CODE,delta=1
    20                           	psect	text8,global,reloc=2,class=CODE,delta=1
    21                           	psect	text9,global,reloc=2,class=CODE,delta=1
    22                           	psect	text10,global,reloc=2,class=CODE,delta=1
    23                           	psect	text11,global,reloc=2,class=CODE,delta=1
    24                           	psect	text12,global,reloc=2,class=CODE,delta=1
    25                           	psect	text13,global,reloc=2,class=CODE,delta=1
    26                           	psect	text14,global,reloc=2,class=CODE,delta=1
    27                           	psect	text15,global,reloc=2,class=CODE,delta=1
    28                           	psect	text16,global,reloc=2,class=CODE,delta=1
    29                           	psect	text17,global,reloc=2,class=CODE,delta=1
    30                           	psect	text18,global,reloc=2,class=CODE,delta=1
    31                           	psect	text19,global,reloc=2,class=CODE,delta=1
    32                           	psect	text20,global,reloc=2,class=CODE,delta=1
    33                           	psect	text21,global,reloc=2,class=CODE,delta=1
    34                           	psect	text22,global,reloc=2,class=CODE,delta=1
    35                           	psect	text23,global,reloc=2,class=CODE,delta=1
    36                           	psect	text24,global,reloc=2,class=CODE,delta=1
    37                           	psect	text25,global,reloc=2,class=CODE,delta=1,group=1
    38                           	psect	intsave_regs,global,class=BIGRAM,space=1,delta=1,noexec
    39                           	psect	rparam,global,class=COMRAM,space=1,delta=1,noexec
    40                           	psect	idloc,global,abs,ovrld,class=IDLOC,space=5,delta=1,noexec
    41                           	psect	config,global,abs,ovrld,class=CONFIG,space=4,delta=1,noexec
    42   000000                     
    43                           ; Version 2.40
    44                           ; Generated 17/11/2021 GMT
    45                           ; 
    46                           ; Copyright © 2021, Microchip Technology Inc. and its subsidiaries ("Microchip")
    47                           ; All rights reserved.
    48                           ; 
    49                           ; This software is developed by Microchip Technology Inc. and its subsidiaries ("Microch
      +                          ip").
    50                           ; 
    51                           ; Redistribution and use in source and binary forms, with or without modification, are
    52                           ; permitted provided that the following conditions are met:
    53                           ; 
    54                           ;     1. Redistributions of source code must retain the above copyright notice, this lis
      +                          t of
    55                           ;        conditions and the following disclaimer.
    56                           ; 
    57                           ;     2. Redistributions in binary form must reproduce the above copyright notice, this 
      +                          list
    58                           ;        of conditions and the following disclaimer in the documentation and/or other
    59                           ;        materials provided with the distribution. Publication is not required when
    60                           ;        this file is used in an embedded application.
    61                           ; 
    62                           ;     3. Microchip's name may not be used to endorse or promote products derived from th
      +                          is
    63                           ;        software without specific prior written permission.
    64                           ; 
    65                           ; THIS SOFTWARE IS PROVIDED BY MICROCHIP "AS IS" AND ANY EXPRESS OR IMPLIED WARRANTIES,
    66                           ; INCLUDING, BUT NOT LIMITED TO, THE IMPLIED WARRANTIES OF MERCHANTABILITY AND FITNESS F
      +                          OR
    67                           ; PURPOSE ARE DISCLAIMED.  IN NO EVENT SHALL MICROCHIP BE LIABLE FOR ANY DIRECT, INDIREC
      +                          T,
    68                           ; INCIDENTAL, SPECIAL, EXEMPLARY, OR CONSEQUENTIAL DAMAGES (INCLUDING BUT NOT LIMITED TO
    69                           ; PROCUREMENT OF SUBSTITUTE GOODS OR SERVICES; LOSS OF USE, DATA OR PROFITS; OR BUSINESS
    70                           ; INTERRUPTION) HOWSOEVER CAUSED AND ON ANY THEORY OF LIABILITY, WHETHER IN CONTRACT, ST
      +                          RICT
    71                           ; LIABILITY, OR TORT (INCLUDING NEGLIGENCE OR OTHERWISE) ARISING IN ANY WAY OUT OF THE U
      +                          SE OF
    72                           ; THIS SOFTWARE, EVEN IF ADVISED OF THE POSSIBILITY OF SUCH DAMAGE.
    73                           ; 
    74                           ; 
    75                           ; Code-generator required, PIC18F4620 Definitions
    76                           ; 
    77                           ; SFR Addresses
    78   000000                     
    79                           	psect	idataCOMRAM
    80   001F5E                     __pidataCOMRAM:
    81                           	callstack 0
    82                           
    83                           ;initializer for _lat_registers
    84   001F5E  89                 	db	137
    85   001F5F  0F                 	db	15
    86   001F60  8A                 	db	138
    87   001F61  0F                 	db	15
    88   001F62  8B                 	db	139
    89   001F63  0F                 	db	15
    90   001F64  8C                 	db	140
    91   001F65  0F                 	db	15
    92   001F66  8D                 	db	141
    93   001F67  0F                 	db	15
    94                           
    95                           ;initializer for _port_registers
    96   001F68  80                 	db	128
    97   001F69  0F                 	db	15
    98   001F6A  81                 	db	129
    99   001F6B  0F                 	db	15
   100   001F6C  82                 	db	130
   101   001F6D  0F                 	db	15
   102   001F6E  83                 	db	131
   103   001F6F  0F                 	db	15
   104   001F70  84                 	db	132
   105   001F71  0F                 	db	15
   106                           
   107                           ;initializer for _tris_registers
   108   001F72  92                 	db	146
   109   001F73  0F                 	db	15
   110   001F74  93                 	db	147
   111   001F75  0F                 	db	15
   112   001F76  94                 	db	148
   113   001F77  0F                 	db	15
   114   001F78  95                 	db	149
   115   001F79  0F                 	db	15
   116   001F7A  96                 	db	150
   117   001F7B  0F                 	db	15
   118                           
   119                           ;initializer for _password
   120   001F7C  E240               	dw	57920
   121   001F7E  0001               	dw	1
   122                           
   123                           ;initializer for _lcd_output_data_col
   124   001F80  0E                 	db	14
   125                           
   126                           ;initializer for _ret
   127   001F81  01                 	db	1
   128                           
   129                           ;initializer for _keypad
   130   001F82  03                 	db	3
   131   001F83  0B                 	db	11
   132   001F84  13                 	db	19
   133   001F85  1B                 	db	27
   134   001F86  63                 	db	99
   135   001F87  6B                 	db	107
   136   001F88  73                 	db	115
   137                           
   138                           ;initializer for _lcd
   139   001F89  02                 	db	2
   140   001F8A  0A                 	db	10
   141   001F8B  12                 	db	18
   142   001F8C  1A                 	db	26
   143   001F8D  22                 	db	34
   144   001F8E  2A                 	db	42
   145                           
   146                           ;initializer for _motor
   147   001F8F  18                 	db	24
   148   001F90  20                 	db	32
   149                           
   150                           ;initializer for _led_opened
   151   001F91  08                 	db	8
   152                           
   153                           	psect	smallconst
   154   001000                     __psmallconst:
   155                           	callstack 0
   156   001000  00                 	db	0
   157   001001                     _keypad_matrix:
   158                           	callstack 0
   159   001001  31                 	db	49
   160   001002  32                 	db	50
   161   001003  33                 	db	51
   162   001004  34                 	db	52
   163   001005  35                 	db	53
   164   001006  36                 	db	54
   165   001007  37                 	db	55
   166   001008  38                 	db	56
   167   001009  39                 	db	57
   168   00100A  2A                 	db	42
   169   00100B  30                 	db	48
   170   00100C  23                 	db	35
   171   00100D                     __end_of_keypad_matrix:
   172                           	callstack 0
   173   00100D                     STR_3:
   174   00100D  49                 	db	73	;'I'
   175   00100E  6E                 	db	110	;'n'
   176   00100F  63                 	db	99	;'c'
   177   001010  6F                 	db	111	;'o'
   178   001011  72                 	db	114	;'r'
   179   001012  72                 	db	114	;'r'
   180   001013  65                 	db	101	;'e'
   181   001014  63                 	db	99	;'c'
   182   001015  74                 	db	116	;'t'
   183   001016  20                 	db	32
   184   001017  50                 	db	80	;'P'
   185   001018  61                 	db	97	;'a'
   186   001019  73                 	db	115	;'s'
   187   00101A  73                 	db	115	;'s'
   188   00101B  77                 	db	119	;'w'
   189   00101C  6F                 	db	111	;'o'
   190   00101D  72                 	db	114	;'r'
   191   00101E  64                 	db	100	;'d'
   192   00101F  21                 	db	33
   193   001020  00                 	db	0
   194   001021                     STR_4:
   195   001021  50                 	db	80	;'P'
   196   001022  6C                 	db	108	;'l'
   197   001023  65                 	db	101	;'e'
   198   001024  61                 	db	97	;'a'
   199   001025  73                 	db	115	;'s'
   200   001026  65                 	db	101	;'e'
   201   001027  2C                 	db	44
   202   001028  20                 	db	32
   203   001029  74                 	db	116	;'t'
   204   00102A  72                 	db	114	;'r'
   205   00102B  79                 	db	121	;'y'
   206   00102C  20                 	db	32
   207   00102D  61                 	db	97	;'a'
   208   00102E  67                 	db	103	;'g'
   209   00102F  61                 	db	97	;'a'
   210   001030  69                 	db	105	;'i'
   211   001031  6E                 	db	110	;'n'
   212   001032  00                 	db	0
   213   001033                     STR_1:
   214   001033  45                 	db	69	;'E'
   215   001034  6E                 	db	110	;'n'
   216   001035  74                 	db	116	;'t'
   217   001036  65                 	db	101	;'e'
   218   001037  72                 	db	114	;'r'
   219   001038  20                 	db	32
   220   001039  50                 	db	80	;'P'
   221   00103A  61                 	db	97	;'a'
   222   00103B  73                 	db	115	;'s'
   223   00103C  73                 	db	115	;'s'
   224   00103D  77                 	db	119	;'w'
   225   00103E  6F                 	db	111	;'o'
   226   00103F  72                 	db	114	;'r'
   227   001040  64                 	db	100	;'d'
   228   001041  3A                 	db	58	;':'
   229   001042  00                 	db	0
   230   001043                     STR_2:
   231   001043  57                 	db	87	;'W'
   232   001044  65                 	db	101	;'e'
   233   001045  6C                 	db	108	;'l'
   234   001046  63                 	db	99	;'c'
   235   001047  6F                 	db	111	;'o'
   236   001048  6D                 	db	109	;'m'
   237   001049  65                 	db	101	;'e'
   238   00104A  21                 	db	33
   239   00104B  00                 	db	0
   240   00104C  00                 	db	0	; dummy byte at the end
   241   000000                     
   242                           	psect	nvCOMRAM
   243   000065                     __pnvCOMRAM:
   244                           	callstack 0
   245   000065                     _keypad_value:
   246                           	callstack 0
   247   000065                     	ds	1
   248   000000                     _LATA	set	3977
   249   000000                     _PORTE	set	3972
   250   000000                     _PORTD	set	3971
   251   000000                     _PORTC	set	3970
   252   000000                     _PORTB	set	3969
   253   000000                     _PORTA	set	3968
   254   000000                     _TRISA	set	3986
   255   000000                     _TRISE	set	3990
   256   000000                     _TRISD	set	3989
   257   000000                     _TRISC	set	3988
   258   000000                     _TRISB	set	3987
   259   000000                     _LATE	set	3981
   260   000000                     _LATD	set	3980
   261   000000                     _LATC	set	3979
   262   000000                     _LATB	set	3978
   263                           
   264                           ; #config settings
   265                           
   266                           	psect	cinit
   267   001F28                     __pcinit:
   268                           	callstack 0
   269   001F28                     start_initialization:
   270                           	callstack 0
   271   001F28                     __initialization:
   272                           	callstack 0
   273                           
   274                           ; Initialize objects allocated to COMRAM (52 bytes)
   275                           ; load TBLPTR registers with __pidataCOMRAM
   276   001F28  0E5E               	movlw	low __pidataCOMRAM
   277   001F2A  6EF6               	movwf	tblptrl,c
   278   001F2C  0E1F               	movlw	high __pidataCOMRAM
   279   001F2E  6EF7               	movwf	tblptrh,c
   280   001F30  0E00               	movlw	low (__pidataCOMRAM shr (0+16))
   281   001F32  6EF8               	movwf	tblptru,c
   282   001F34  EE00  F001         	lfsr	0,__pdataCOMRAM
   283   001F38  EE10 F034          	lfsr	1,52
   284   001F3C                     copy_data0:
   285   001F3C  0009               	tblrd		*+
   286   001F3E  CFF5 FFEE          	movff	tablat,postinc0
   287   001F42  50E5               	movf	postdec1,w,c
   288   001F44  50E1               	movf	fsr1l,w,c
   289   001F46  E1FA               	bnz	copy_data0
   290                           
   291                           ; Clear objects allocated to COMRAM (9 bytes)
   292   001F48  EE00  F05C         	lfsr	0,__pbssCOMRAM
   293   001F4C  0E09               	movlw	9
   294   001F4E                     clear_0:
   295   001F4E  6AEE               	clrf	postinc0,c
   296   001F50  06E8               	decf	wreg,f,c
   297   001F52  E1FD               	bnz	clear_0
   298   001F54                     end_of_initialization:
   299                           	callstack 0
   300   001F54                     __end_of__initialization:
   301                           	callstack 0
   302   001F54  0E00               	movlw	low (__Lmediumconst shr (0+16))
   303   001F56  6EF8               	movwf	tblptru,c
   304   001F58  0100               	movlb	0
   305   001F5A  EF27  F008         	goto	_main	;jump to C main() function
   306                           
   307                           	psect	bssCOMRAM
   308   00005C                     __pbssCOMRAM:
   309                           	callstack 0
   310   00005C                     _entered_password:
   311                           	callstack 0
   312   00005C                     	ds	4
   313   000060                     _number_of_clicks:
   314                           	callstack 0
   315   000060                     	ds	1
   316   000061                     led_turn_off@F3035:
   317                           	callstack 0
   318   000061                     	ds	1
   319   000062                     led_turn_on@F3030:
   320                           	callstack 0
   321   000062                     	ds	1
   322   000063                     led_intialiaze@F3025:
   323                           	callstack 0
   324   000063                     	ds	1
   325   000064                     _led_locked:
   326                           	callstack 0
   327   000064                     	ds	1
   328                           
   329                           	psect	dataCOMRAM
   330   000001                     __pdataCOMRAM:
   331                           	callstack 0
   332   000001                     _lat_registers:
   333                           	callstack 0
   334   000001                     	ds	10
   335   00000B                     _port_registers:
   336                           	callstack 0
   337   00000B                     	ds	10
   338   000015                     _tris_registers:
   339                           	callstack 0
   340   000015                     	ds	10
   341   00001F                     _password:
   342                           	callstack 0
   343   00001F                     	ds	4
   344   000023                     _lcd_output_data_col:
   345                           	callstack 0
   346   000023                     	ds	1
   347   000024                     _ret:
   348                           	callstack 0
   349   000024                     	ds	1
   350   000025                     _keypad:
   351                           	callstack 0
   352   000025                     	ds	7
   353   00002C                     _lcd:
   354                           	callstack 0
   355   00002C                     	ds	6
   356   000032                     _motor:
   357                           	callstack 0
   358   000032                     	ds	2
   359   000034                     _led_opened:
   360                           	callstack 0
   361   000034                     	ds	1
   362                           
   363                           	psect	cstackCOMRAM
   364   000035                     __pcstackCOMRAM:
   365                           	callstack 0
   366   000035                     ?___lmul:
   367                           	callstack 0
   368   000035                     gpio_pin_direction_intialize@_pin_config:
   369                           	callstack 0
   370   000035                     gpio_pin_write_logic@_pin_config:
   371                           	callstack 0
   372   000035                     gpio_pin_read_logic@_pin_config:
   373                           	callstack 0
   374   000035                     ___lmul@multiplier:
   375                           	callstack 0
   376                           
   377                           ; 4 bytes @ 0x0
   378   000035                     	ds	2
   379   000037                     ??_gpio_pin_direction_intialize:
   380   000037                     gpio_pin_write_logic@logic:
   381                           	callstack 0
   382   000037                     gpio_pin_read_logic@logic:
   383                           	callstack 0
   384                           
   385                           ; 2 bytes @ 0x2
   386   000037                     	ds	1
   387   000038                     ??_gpio_pin_write_logic:
   388                           
   389                           ; 1 bytes @ 0x3
   390   000038                     	ds	1
   391   000039                     ??_gpio_pin_read_logic:
   392   000039                     ___lmul@multiplicand:
   393                           	callstack 0
   394                           
   395                           ; 4 bytes @ 0x4
   396   000039                     	ds	4
   397   00003D                     gpio_pin_direction_intialize@ret:
   398                           	callstack 0
   399   00003D                     ___lmul@product:
   400                           	callstack 0
   401                           
   402                           ; 4 bytes @ 0x8
   403   00003D                     	ds	1
   404   00003E                     gpio_pin_write_logic@ret:
   405                           	callstack 0
   406   00003E                     gpio_pin_read_logic@ret:
   407                           	callstack 0
   408                           
   409                           ; 1 bytes @ 0x9
   410   00003E                     	ds	1
   411   00003F                     motor_move_right@motor:
   412                           	callstack 0
   413   00003F                     motor_stop@motor:
   414                           	callstack 0
   415   00003F                     keypad_get_value@keypad:
   416                           	callstack 0
   417   00003F                     lcd_send_4bit@lcd:
   418                           	callstack 0
   419   00003F                     send_4bit_enable_signal@lcd:
   420                           	callstack 0
   421   00003F                     led_turn_on@led:
   422                           	callstack 0
   423   00003F                     led_turn_off@led:
   424                           	callstack 0
   425   00003F                     gpio_pin_intialize@_pin_config:
   426                           	callstack 0
   427                           
   428                           ; 2 bytes @ 0xA
   429   00003F                     	ds	2
   430   000041                     ??_gpio_pin_intialize:
   431   000041                     ??_led_turn_on:
   432   000041                     ??_led_turn_off:
   433   000041                     motor_move_right@ret:
   434                           	callstack 0
   435   000041                     motor_stop@ret:
   436                           	callstack 0
   437   000041                     lcd_send_4bit@data:
   438                           	callstack 0
   439   000041                     send_4bit_enable_signal@ret:
   440                           	callstack 0
   441   000041                     keypad_get_value@value:
   442                           	callstack 0
   443                           
   444                           ; 2 bytes @ 0xC
   445   000041                     	ds	1
   446   000042                     ??_lcd_send_4bit:
   447   000042                     led_turn_on@ret:
   448                           	callstack 0
   449   000042                     led_turn_off@ret:
   450                           	callstack 0
   451   000042                     gpio_pin_intialize@ret:
   452                           	callstack 0
   453                           
   454                           ; 1 bytes @ 0xD
   455   000042                     	ds	1
   456   000043                     ??_keypad_get_value:
   457   000043                     led_turn_on@pin_config_obj:
   458                           	callstack 0
   459   000043                     led_turn_off@pin_config_obj:
   460                           	callstack 0
   461   000043                     motor_intialize@motor:
   462                           	callstack 0
   463   000043                     keypad_intialize@keypad:
   464                           	callstack 0
   465   000043                     led_intialiaze@led:
   466                           	callstack 0
   467                           
   468                           ; 2 bytes @ 0xE
   469   000043                     	ds	2
   470   000045                     ??_keypad_intialize:
   471   000045                     ??_led_intialiaze:
   472   000045                     motor_intialize@ret:
   473                           	callstack 0
   474   000045                     keypad_get_value@ret:
   475                           	callstack 0
   476                           
   477                           ; 1 bytes @ 0x10
   478   000045                     	ds	1
   479   000046                     keypad_get_value@logic:
   480                           	callstack 0
   481   000046                     lcd_send_4bit@ret:
   482                           	callstack 0
   483   000046                     led_intialiaze@ret:
   484                           	callstack 0
   485                           
   486                           ; 1 bytes @ 0x11
   487   000046                     	ds	1
   488   000047                     keypad_intialize@ret:
   489                           	callstack 0
   490   000047                     keypad_get_value@col:
   491                           	callstack 0
   492   000047                     lcd_send_4bit@line_pins:
   493                           	callstack 0
   494   000047                     led_intialiaze@pin_config_obj:
   495                           	callstack 0
   496                           
   497                           ; 1 bytes @ 0x12
   498   000047                     	ds	1
   499   000048                     keypad_get_value@rows:
   500                           	callstack 0
   501   000048                     keypad_intialize@rows_counter:
   502                           	callstack 0
   503   000048                     lcd_4bit_send_command@lcd:
   504                           	callstack 0
   505   000048                     lcd_4bit_send_char@lcd:
   506                           	callstack 0
   507                           
   508                           ; 2 bytes @ 0x13
   509   000048                     	ds	1
   510   000049                     ??_keypad_read_value:
   511                           
   512                           ; 1 bytes @ 0x14
   513   000049                     	ds	1
   514   00004A                     lcd_4bit_send_command@command:
   515                           	callstack 0
   516   00004A                     lcd_4bit_send_char@data:
   517                           	callstack 0
   518   00004A                     keypad_read_value@current_value:
   519                           	callstack 0
   520   00004A                     keypad_intialize@col_counter:
   521                           	callstack 0
   522                           
   523                           ; 2 bytes @ 0x15
   524   00004A                     	ds	1
   525   00004B                     lcd_4bit_send_command@ret:
   526                           	callstack 0
   527   00004B                     lcd_4bit_send_char@ret:
   528                           	callstack 0
   529   00004B                     keypad_read_value@new_value:
   530                           	callstack 0
   531                           
   532                           ; 1 bytes @ 0x16
   533   00004B                     	ds	1
   534   00004C                     lcd_4bit_intialize@lcd:
   535                           	callstack 0
   536   00004C                     lcd_4bit_send_string@lcd:
   537                           	callstack 0
   538   00004C                     lcd_4bit_set_cursor@lcd:
   539                           	callstack 0
   540                           
   541                           ; 2 bytes @ 0x17
   542   00004C                     	ds	2
   543   00004E                     ??_lcd_4bit_intialize:
   544   00004E                     lcd_4bit_set_cursor@row:
   545                           	callstack 0
   546   00004E                     lcd_4bit_send_string@string:
   547                           	callstack 0
   548                           
   549                           ; 2 bytes @ 0x19
   550   00004E                     	ds	1
   551   00004F                     lcd_4bit_set_cursor@colomn:
   552                           	callstack 0
   553                           
   554                           ; 1 bytes @ 0x1A
   555   00004F                     	ds	1
   556   000050                     ??_lcd_4bit_set_cursor:
   557   000050                     lcd_4bit_intialize@pin:
   558                           	callstack 0
   559   000050                     lcd_4bit_send_string@ret:
   560                           	callstack 0
   561                           
   562                           ; 1 bytes @ 0x1B
   563   000050                     	ds	1
   564   000051                     lcd_4bit_intialize@ret:
   565                           	callstack 0
   566                           
   567                           ; 1 bytes @ 0x1C
   568   000051                     	ds	1
   569   000052                     lcd_4bit_set_cursor@ret:
   570                           	callstack 0
   571   000052                     ecu_layer_intialize@ret:
   572                           	callstack 0
   573                           
   574                           ; 1 bytes @ 0x1D
   575   000052                     	ds	1
   576   000053                     lcd_4bit_send_char_pos@lcd:
   577                           	callstack 0
   578   000053                     lcd_4bit_send_string_pos@lcd:
   579                           	callstack 0
   580                           
   581                           ; 2 bytes @ 0x1E
   582   000053                     	ds	2
   583   000055                     lcd_4bit_send_char_pos@row:
   584                           	callstack 0
   585   000055                     lcd_4bit_send_string_pos@row:
   586                           	callstack 0
   587                           
   588                           ; 1 bytes @ 0x20
   589   000055                     	ds	1
   590   000056                     lcd_4bit_send_char_pos@colomn:
   591                           	callstack 0
   592   000056                     lcd_4bit_send_string_pos@colomn:
   593                           	callstack 0
   594                           
   595                           ; 1 bytes @ 0x21
   596   000056                     	ds	1
   597   000057                     lcd_4bit_send_char_pos@data:
   598                           	callstack 0
   599   000057                     lcd_4bit_send_string_pos@string:
   600                           	callstack 0
   601                           
   602                           ; 2 bytes @ 0x22
   603   000057                     	ds	1
   604   000058                     lcd_4bit_send_char_pos@ret:
   605                           	callstack 0
   606                           
   607                           ; 1 bytes @ 0x23
   608   000058                     	ds	1
   609   000059                     lcd_4bit_send_string_pos@ret:
   610                           	callstack 0
   611                           
   612                           ; 1 bytes @ 0x24
   613   000059                     	ds	1
   614   00005A                     ??_main:
   615                           
   616                           ; 1 bytes @ 0x25
   617   00005A                     	ds	2
   618                           
   619 ;;
   620 ;;Main: autosize = 0, tempsize = 2, incstack = 0, save=0
   621 ;;
   622 ;; *************** function _main *****************
   623 ;; Defined at:
   624 ;;		line 21 in file "application.c"
   625 ;; Parameters:    Size  Location     Type
   626 ;;		None
   627 ;; Auto vars:     Size  Location     Type
   628 ;;		None
   629 ;; Return value:  Size  Location     Type
   630 ;;                  2  276[None  ] int 
   631 ;; Registers used:
   632 ;;		wreg, fsr2l, fsr2h, status,2, status,0, tblptrl, tblptrh, tblptru, prodl, prodh, cstack
   633 ;; Tracked objects:
   634 ;;		On entry : 0/0
   635 ;;		On exit  : 0/0
   636 ;;		Unchanged: 0/0
   637 ;; Data sizes:     COMRAM   BANK0   BANK1   BANK2   BANK3   BANK4   BANK5   BANK6   BANK7   BANK8   BANK9  BANK10  BANK1
      +1  BANK12  BANK13  BANK14  BANK15
   638 ;;      Params:         0       0       0       0       0       0       0       0       0       0       0       0       
      +0       0       0       0       0
   639 ;;      Locals:         0       0       0       0       0       0       0       0       0       0       0       0       
      +0       0       0       0       0
   640 ;;      Temps:          2       0       0       0       0       0       0       0       0       0       0       0       
      +0       0       0       0       0
   641 ;;      Totals:         2       0       0       0       0       0       0       0       0       0       0       0       
      +0       0       0       0       0
   642 ;;Total ram usage:        2 bytes
   643 ;; Hardware stack levels required when called: 6
   644 ;; This function calls:
   645 ;;		___lmul
   646 ;;		_application_intialize
   647 ;;		_keypad_read_value
   648 ;;		_lcd_4bit_send_char_pos
   649 ;;		_lcd_4bit_send_command
   650 ;;		_lcd_4bit_send_string
   651 ;;		_lcd_4bit_send_string_pos
   652 ;;		_led_turn_off
   653 ;;		_led_turn_on
   654 ;;		_motor_move_right
   655 ;;		_motor_stop
   656 ;; This function is called by:
   657 ;;		Startup code after reset
   658 ;; This function uses a non-reentrant model
   659 ;;
   660                           
   661                           	psect	text0
   662   00104E                     __ptext0:
   663                           	callstack 0
   664   00104E                     _main:
   665                           	callstack 25
   666   00104E                     
   667                           ;application.c: 23:     application_intialize();
   668   00104E  ECC9  F00F         	call	_application_intialize	;wreg free
   669   001052                     
   670                           ;application.c: 25:     ret = lcd_4bit_send_string(&lcd, "Enter Password:");
   671   001052  0E2C               	movlw	low _lcd
   672   001054  6E4C               	movwf	lcd_4bit_send_string@lcd^0,c
   673   001056  0E00               	movlw	high _lcd
   674   001058  6E4D               	movwf	(lcd_4bit_send_string@lcd+1)^0,c
   675   00105A  0E33               	movlw	low STR_1
   676   00105C  6E4E               	movwf	lcd_4bit_send_string@string^0,c
   677   00105E  0E10               	movlw	high STR_1
   678   001060  6E4F               	movwf	(lcd_4bit_send_string@string+1)^0,c
   679   001062  EC84  F00E         	call	_lcd_4bit_send_string	;wreg free
   680   001066  6E24               	movwf	_ret^0,c
   681   001068                     l1991:
   682                           
   683                           ;application.c: 28:     {;application.c: 30:         keypad_value = keypad_read_value();
   684   001068  ECEA  F00D         	call	_keypad_read_value	;wreg free
   685   00106C  6E65               	movwf	_keypad_value^0,c
   686   00106E                     
   687                           ;application.c: 32:         if(6 == number_of_clicks)
   688   00106E  0E06               	movlw	6
   689   001070  1860               	xorwf	_number_of_clicks^0,w,c
   690   001072  A4D8               	btfss	status,2,c
   691   001074  EF3E  F008         	goto	u1091
   692   001078  EF40  F008         	goto	u1090
   693   00107C                     u1091:
   694   00107C  EFF9  F008         	goto	l2027
   695   001080                     u1090:
   696   001080                     
   697                           ;application.c: 33:         {;application.c: 35:             number_of_clicks = 0;
   698   001080  0E00               	movlw	0
   699   001082  6E60               	movwf	_number_of_clicks^0,c
   700                           
   701                           ;application.c: 36:             lcd_output_data_col = 14;
   702   001084  0E0E               	movlw	14
   703   001086  6E23               	movwf	_lcd_output_data_col^0,c
   704   001088                     
   705                           ;application.c: 39:             if(entered_password == password)
   706   001088  0E40               	movlw	64
   707   00108A  185C               	xorwf	_entered_password^0,w,c
   708   00108C  E10A               	bnz	u1101
   709   00108E  0EE2               	movlw	226
   710   001090  185D               	xorwf	(_entered_password+1)^0,w,c
   711   001092  E107               	bnz	u1101
   712   001094  045E               	decf	(_entered_password+2)^0,w,c
   713   001096  105F               	iorwf	(_entered_password+3)^0,w,c
   714   001098  A4D8               	btfss	status,2,c
   715   00109A  EF51  F008         	goto	u1101
   716   00109E  EF53  F008         	goto	u1100
   717   0010A2                     u1101:
   718   0010A2  EF9D  F008         	goto	l2011
   719   0010A6                     u1100:
   720   0010A6                     
   721                           ;application.c: 40:             {;application.c: 41:                 ret = led_turn_on(&
      +                          led_opened);
   722   0010A6  0E34               	movlw	low _led_opened
   723   0010A8  6E3F               	movwf	led_turn_on@led^0,c
   724   0010AA  0E00               	movlw	high _led_opened
   725   0010AC  6E40               	movwf	(led_turn_on@led+1)^0,c
   726   0010AE  EC88  F00C         	call	_led_turn_on	;wreg free
   727   0010B2  6E24               	movwf	_ret^0,c
   728                           
   729                           ;application.c: 42:                 ret = motor_move_right(&motor);
   730   0010B4  0E32               	movlw	low _motor
   731   0010B6  6E3F               	movwf	motor_move_right@motor^0,c
   732   0010B8  0E00               	movlw	high _motor
   733   0010BA  6E40               	movwf	(motor_move_right@motor+1)^0,c
   734   0010BC  EC38  F00F         	call	_motor_move_right	;wreg free
   735   0010C0  6E24               	movwf	_ret^0,c
   736                           
   737                           ;application.c: 43:                 ret = lcd_4bit_send_command(&lcd, 0x01);
   738   0010C2  0E2C               	movlw	low _lcd
   739   0010C4  6E48               	movwf	lcd_4bit_send_command@lcd^0,c
   740   0010C6  0E00               	movlw	high _lcd
   741   0010C8  6E49               	movwf	(lcd_4bit_send_command@lcd+1)^0,c
   742   0010CA  0E01               	movlw	1
   743   0010CC  6E4A               	movwf	lcd_4bit_send_command@command^0,c
   744   0010CE  EC51  F00E         	call	_lcd_4bit_send_command	;wreg free
   745   0010D2  6E24               	movwf	_ret^0,c
   746   0010D4                     
   747                           ;application.c: 44:                 ret = lcd_4bit_send_string_pos(&lcd , 1, 7, "Welcome
      +                          !");
   748   0010D4  0E2C               	movlw	low _lcd
   749   0010D6  6E53               	movwf	lcd_4bit_send_string_pos@lcd^0,c
   750   0010D8  0E00               	movlw	high _lcd
   751   0010DA  6E54               	movwf	(lcd_4bit_send_string_pos@lcd+1)^0,c
   752   0010DC  0E01               	movlw	1
   753   0010DE  6E55               	movwf	lcd_4bit_send_string_pos@row^0,c
   754   0010E0  0E07               	movlw	7
   755   0010E2  6E56               	movwf	lcd_4bit_send_string_pos@colomn^0,c
   756   0010E4  0E43               	movlw	low STR_2
   757   0010E6  6E57               	movwf	lcd_4bit_send_string_pos@string^0,c
   758   0010E8  0E10               	movlw	high STR_2
   759   0010EA  6E58               	movwf	(lcd_4bit_send_string_pos@string+1)^0,c
   760   0010EC  ECD5  F00E         	call	_lcd_4bit_send_string_pos	;wreg free
   761   0010F0  6E24               	movwf	_ret^0,c
   762   0010F2                     
   763                           ;application.c: 45:                 _delay((unsigned long)((3000)*(4000000/4000.0)));
   764   0010F2  0E10               	movlw	16
   765   0010F4  6E5B               	movwf	(??_main+1)^0,c
   766   0010F6  0E39               	movlw	57
   767   0010F8  6E5A               	movwf	??_main^0,c
   768   0010FA  0E0E               	movlw	14
   769   0010FC                     u1137:
   770   0010FC  2EE8               	decfsz	wreg,f,c
   771   0010FE  D7FE               	bra	u1137
   772   001100  2E5A               	decfsz	??_main^0,f,c
   773   001102  D7FC               	bra	u1137
   774   001104  2E5B               	decfsz	(??_main+1)^0,f,c
   775   001106  D7FA               	bra	u1137
   776   001108                     
   777                           ;application.c: 47:                 ret = led_turn_off(&led_opened);
   778   001108  0E34               	movlw	low _led_opened
   779   00110A  6E3F               	movwf	led_turn_off@led^0,c
   780   00110C  0E00               	movlw	high _led_opened
   781   00110E  6E40               	movwf	(led_turn_off@led+1)^0,c
   782   001110  ECC9  F00C         	call	_led_turn_off	;wreg free
   783   001114  6E24               	movwf	_ret^0,c
   784   001116                     
   785                           ;application.c: 48:                 ret = motor_stop(&motor);
   786   001116  0E32               	movlw	low _motor
   787   001118  6E3F               	movwf	motor_stop@motor^0,c
   788   00111A  0E00               	movlw	high _motor
   789   00111C  6E40               	movwf	(motor_stop@motor+1)^0,c
   790   00111E  EC18  F00F         	call	_motor_stop	;wreg free
   791   001122  6E24               	movwf	_ret^0,c
   792   001124                     
   793                           ;application.c: 49:                 ret = lcd_4bit_send_command(&lcd, 0x01);
   794   001124  0E2C               	movlw	low _lcd
   795   001126  6E48               	movwf	lcd_4bit_send_command@lcd^0,c
   796   001128  0E00               	movlw	high _lcd
   797   00112A  6E49               	movwf	(lcd_4bit_send_command@lcd+1)^0,c
   798   00112C  0E01               	movlw	1
   799   00112E  6E4A               	movwf	lcd_4bit_send_command@command^0,c
   800   001130  EC51  F00E         	call	_lcd_4bit_send_command	;wreg free
   801   001134  6E24               	movwf	_ret^0,c
   802                           
   803                           ;application.c: 50:             }
   804   001136  EFF1  F008         	goto	l2025
   805   00113A                     l2011:
   806                           
   807                           ;application.c: 53:             {;application.c: 54:                 ret = led_turn_on(&
      +                          led_locked);
   808   00113A  0E64               	movlw	low _led_locked
   809   00113C  6E3F               	movwf	led_turn_on@led^0,c
   810   00113E  0E00               	movlw	high _led_locked
   811   001140  6E40               	movwf	(led_turn_on@led+1)^0,c
   812   001142  EC88  F00C         	call	_led_turn_on	;wreg free
   813   001146  6E24               	movwf	_ret^0,c
   814                           
   815                           ;application.c: 55:                 ret = lcd_4bit_send_command(&lcd, 0x01);
   816   001148  0E2C               	movlw	low _lcd
   817   00114A  6E48               	movwf	lcd_4bit_send_command@lcd^0,c
   818   00114C  0E00               	movlw	high _lcd
   819   00114E  6E49               	movwf	(lcd_4bit_send_command@lcd+1)^0,c
   820   001150  0E01               	movlw	1
   821   001152  6E4A               	movwf	lcd_4bit_send_command@command^0,c
   822   001154  EC51  F00E         	call	_lcd_4bit_send_command	;wreg free
   823   001158  6E24               	movwf	_ret^0,c
   824   00115A                     
   825                           ;application.c: 56:                 ret = lcd_4bit_send_string_pos(&lcd, 1, 2, "Incorrec
      +                          t Password!");
   826   00115A  0E2C               	movlw	low _lcd
   827   00115C  6E53               	movwf	lcd_4bit_send_string_pos@lcd^0,c
   828   00115E  0E00               	movlw	high _lcd
   829   001160  6E54               	movwf	(lcd_4bit_send_string_pos@lcd+1)^0,c
   830   001162  0E01               	movlw	1
   831   001164  6E55               	movwf	lcd_4bit_send_string_pos@row^0,c
   832   001166  0E02               	movlw	2
   833   001168  6E56               	movwf	lcd_4bit_send_string_pos@colomn^0,c
   834   00116A  0E0D               	movlw	low STR_3
   835   00116C  6E57               	movwf	lcd_4bit_send_string_pos@string^0,c
   836   00116E  0E10               	movlw	high STR_3
   837   001170  6E58               	movwf	(lcd_4bit_send_string_pos@string+1)^0,c
   838   001172  ECD5  F00E         	call	_lcd_4bit_send_string_pos	;wreg free
   839   001176  6E24               	movwf	_ret^0,c
   840   001178                     
   841                           ;application.c: 57:                 ret = lcd_4bit_send_string_pos(&lcd, 2, 2, "Please, 
      +                          try again");
   842   001178  0E2C               	movlw	low _lcd
   843   00117A  6E53               	movwf	lcd_4bit_send_string_pos@lcd^0,c
   844   00117C  0E00               	movlw	high _lcd
   845   00117E  6E54               	movwf	(lcd_4bit_send_string_pos@lcd+1)^0,c
   846   001180  0E02               	movlw	2
   847   001182  6E55               	movwf	lcd_4bit_send_string_pos@row^0,c
   848   001184  0E02               	movlw	2
   849   001186  6E56               	movwf	lcd_4bit_send_string_pos@colomn^0,c
   850   001188  0E21               	movlw	low STR_4
   851   00118A  6E57               	movwf	lcd_4bit_send_string_pos@string^0,c
   852   00118C  0E10               	movlw	high STR_4
   853   00118E  6E58               	movwf	(lcd_4bit_send_string_pos@string+1)^0,c
   854   001190  ECD5  F00E         	call	_lcd_4bit_send_string_pos	;wreg free
   855   001194  6E24               	movwf	_ret^0,c
   856   001196                     
   857                           ;application.c: 59:                 _delay((unsigned long)((2000)*(4000000/4000.0)));
   858   001196  0E0B               	movlw	11
   859   001198  6E5B               	movwf	(??_main+1)^0,c
   860   00119A  0E26               	movlw	38
   861   00119C  6E5A               	movwf	??_main^0,c
   862   00119E  0E5E               	movlw	94
   863   0011A0                     u1147:
   864   0011A0  2EE8               	decfsz	wreg,f,c
   865   0011A2  D7FE               	bra	u1147
   866   0011A4  2E5A               	decfsz	??_main^0,f,c
   867   0011A6  D7FC               	bra	u1147
   868   0011A8  2E5B               	decfsz	(??_main+1)^0,f,c
   869   0011AA  D7FA               	bra	u1147
   870   0011AC                     
   871                           ;application.c: 60:                 ret = led_turn_off(&led_locked);
   872   0011AC  0E64               	movlw	low _led_locked
   873   0011AE  6E3F               	movwf	led_turn_off@led^0,c
   874   0011B0  0E00               	movlw	high _led_locked
   875   0011B2  6E40               	movwf	(led_turn_off@led+1)^0,c
   876   0011B4  ECC9  F00C         	call	_led_turn_off	;wreg free
   877   0011B8  6E24               	movwf	_ret^0,c
   878   0011BA                     
   879                           ;application.c: 61:                 ret = lcd_4bit_send_command(&lcd, 0x01);
   880   0011BA  0E2C               	movlw	low _lcd
   881   0011BC  6E48               	movwf	lcd_4bit_send_command@lcd^0,c
   882   0011BE  0E00               	movlw	high _lcd
   883   0011C0  6E49               	movwf	(lcd_4bit_send_command@lcd+1)^0,c
   884   0011C2  0E01               	movlw	1
   885   0011C4  6E4A               	movwf	lcd_4bit_send_command@command^0,c
   886   0011C6  EC51  F00E         	call	_lcd_4bit_send_command	;wreg free
   887   0011CA  6E24               	movwf	_ret^0,c
   888   0011CC                     
   889                           ;application.c: 62:                 ret = lcd_4bit_send_string(&lcd, "Enter Password:");
   890   0011CC  0E2C               	movlw	low _lcd
   891   0011CE  6E4C               	movwf	lcd_4bit_send_string@lcd^0,c
   892   0011D0  0E00               	movlw	high _lcd
   893   0011D2  6E4D               	movwf	(lcd_4bit_send_string@lcd+1)^0,c
   894   0011D4  0E33               	movlw	low STR_1
   895   0011D6  6E4E               	movwf	lcd_4bit_send_string@string^0,c
   896   0011D8  0E10               	movlw	high STR_1
   897   0011DA  6E4F               	movwf	(lcd_4bit_send_string@string+1)^0,c
   898   0011DC  EC84  F00E         	call	_lcd_4bit_send_string	;wreg free
   899   0011E0  6E24               	movwf	_ret^0,c
   900   0011E2                     l2025:
   901                           
   902                           ;application.c: 65:             entered_password = 0;
   903   0011E2  0E00               	movlw	0
   904   0011E4  6E5C               	movwf	_entered_password^0,c
   905   0011E6  0E00               	movlw	0
   906   0011E8  6E5D               	movwf	(_entered_password+1)^0,c
   907   0011EA  0E00               	movlw	0
   908   0011EC  6E5E               	movwf	(_entered_password+2)^0,c
   909   0011EE  0E00               	movlw	0
   910   0011F0  6E5F               	movwf	(_entered_password+3)^0,c
   911   0011F2                     l2027:
   912                           
   913                           ;application.c: 68:         if('0' <= keypad_value && keypad_value <= '9')
   914   0011F2  0E2F               	movlw	47
   915   0011F4  6465               	cpfsgt	_keypad_value^0,c
   916   0011F6  EFFF  F008         	goto	u1111
   917   0011FA  EF01  F009         	goto	u1110
   918   0011FE                     u1111:
   919   0011FE  EF34  F008         	goto	l1991
   920   001202                     u1110:
   921   001202  0E3A               	movlw	58
   922   001204  6065               	cpfslt	_keypad_value^0,c
   923   001206  EF07  F009         	goto	u1121
   924   00120A  EF09  F009         	goto	u1120
   925   00120E                     u1121:
   926   00120E  EF34  F008         	goto	l1991
   927   001212                     u1120:
   928   001212                     
   929                           ;application.c: 69:         {;application.c: 70:             number_of_clicks++;
   930   001212  2A60               	incf	_number_of_clicks^0,f,c
   931   001214                     
   932                           ;application.c: 72:            entered_password = (entered_password * 10) + (keypad_valu
      +                          e - '0');
   933   001214  0ED0               	movlw	208
   934   001216  2465               	addwf	_keypad_value^0,w,c
   935   001218  6E5A               	movwf	??_main^0,c
   936   00121A  6A5B               	clrf	(??_main+1)^0,c
   937   00121C  0EFF               	movlw	255
   938   00121E  225B               	addwfc	(??_main+1)^0,f,c
   939   001220  C05C  F035         	movff	_entered_password,___lmul@multiplier
   940   001224  C05D  F036         	movff	_entered_password+1,___lmul@multiplier+1
   941   001228  C05E  F037         	movff	_entered_password+2,___lmul@multiplier+2
   942   00122C  C05F  F038         	movff	_entered_password+3,___lmul@multiplier+3
   943   001230  0E0A               	movlw	10
   944   001232  6E39               	movwf	___lmul@multiplicand^0,c
   945   001234  0E00               	movlw	0
   946   001236  6E3A               	movwf	(___lmul@multiplicand+1)^0,c
   947   001238  0E00               	movlw	0
   948   00123A  6E3B               	movwf	(___lmul@multiplicand+2)^0,c
   949   00123C  0E00               	movlw	0
   950   00123E  6E3C               	movwf	(___lmul@multiplicand+3)^0,c
   951   001240  ECB5  F00D         	call	___lmul	;wreg free
   952   001244  505A               	movf	??_main^0,w,c
   953   001246  2435               	addwf	?___lmul^0,w,c
   954   001248  6E5C               	movwf	_entered_password^0,c
   955   00124A  505B               	movf	(??_main+1)^0,w,c
   956   00124C  2036               	addwfc	(?___lmul+1)^0,w,c
   957   00124E  6E5D               	movwf	(_entered_password+1)^0,c
   958   001250  0E00               	movlw	0
   959   001252  2037               	addwfc	(?___lmul+2)^0,w,c
   960   001254  6E5E               	movwf	(_entered_password+2)^0,c
   961   001256  0E00               	movlw	0
   962   001258  2038               	addwfc	(?___lmul+3)^0,w,c
   963   00125A  6E5F               	movwf	(_entered_password+3)^0,c
   964   00125C                     
   965                           ;application.c: 73:            ret = lcd_4bit_send_char_pos(&lcd, 2, ++lcd_output_data_c
      +                          ol, keypad_value);
   966   00125C  0E2C               	movlw	low _lcd
   967   00125E  6E53               	movwf	lcd_4bit_send_char_pos@lcd^0,c
   968   001260  0E00               	movlw	high _lcd
   969   001262  6E54               	movwf	(lcd_4bit_send_char_pos@lcd+1)^0,c
   970   001264  0E02               	movlw	2
   971   001266  6E55               	movwf	lcd_4bit_send_char_pos@row^0,c
   972   001268  2A23               	incf	_lcd_output_data_col^0,f,c
   973   00126A  C023  F056         	movff	_lcd_output_data_col,lcd_4bit_send_char_pos@colomn
   974   00126E  C065  F057         	movff	_keypad_value,lcd_4bit_send_char_pos@data
   975   001272  EC58  F00F         	call	_lcd_4bit_send_char_pos	;wreg free
   976   001276  6E24               	movwf	_ret^0,c
   977   001278                     
   978                           ;application.c: 74:            _delay((unsigned long)((400)*(4000000/4000.0)));
   979   001278  0E03               	movlw	3
   980   00127A  6E5B               	movwf	(??_main+1)^0,c
   981   00127C  0E08               	movlw	8
   982   00127E  6E5A               	movwf	??_main^0,c
   983   001280  0E77               	movlw	119
   984   001282                     u1157:
   985   001282  2EE8               	decfsz	wreg,f,c
   986   001284  D7FE               	bra	u1157
   987   001286  2E5A               	decfsz	??_main^0,f,c
   988   001288  D7FC               	bra	u1157
   989   00128A  2E5B               	decfsz	(??_main+1)^0,f,c
   990   00128C  D7FA               	bra	u1157
   991   00128E  F000               	nop	
   992   001290                     
   993                           ;application.c: 75:            ret = lcd_4bit_send_char_pos(&lcd, 2, lcd_output_data_col
      +                          , '*');
   994   001290  0E2C               	movlw	low _lcd
   995   001292  6E53               	movwf	lcd_4bit_send_char_pos@lcd^0,c
   996   001294  0E00               	movlw	high _lcd
   997   001296  6E54               	movwf	(lcd_4bit_send_char_pos@lcd+1)^0,c
   998   001298  0E02               	movlw	2
   999   00129A  6E55               	movwf	lcd_4bit_send_char_pos@row^0,c
  1000   00129C  C023  F056         	movff	_lcd_output_data_col,lcd_4bit_send_char_pos@colomn
  1001   0012A0  0E2A               	movlw	42
  1002   0012A2  6E57               	movwf	lcd_4bit_send_char_pos@data^0,c
  1003   0012A4  EC58  F00F         	call	_lcd_4bit_send_char_pos	;wreg free
  1004   0012A8  6E24               	movwf	_ret^0,c
  1005                           
  1006                           ;application.c: 76:         }
  1007   0012AA  EF34  F008         	goto	l1991
  1008   0012AE  EF00  F000         	goto	start
  1009   0012B2                     __end_of_main:
  1010                           	callstack 0
  1011                           
  1012 ;; *************** function _motor_stop *****************
  1013 ;; Defined at:
  1014 ;;		line 51 in file "ECU_Layer/DC_Motor/ecu_dc_motor.c"
  1015 ;; Parameters:    Size  Location     Type
  1016 ;;  motor           2   10[COMRAM] PTR const struct .
  1017 ;;		 -> motor(2), 
  1018 ;; Auto vars:     Size  Location     Type
  1019 ;;  ret             1   12[COMRAM] unsigned char 
  1020 ;; Return value:  Size  Location     Type
  1021 ;;                  1    wreg      unsigned char 
  1022 ;; Registers used:
  1023 ;;		wreg, fsr2l, fsr2h, status,2, status,0, prodl, prodh, cstack
  1024 ;; Tracked objects:
  1025 ;;		On entry : 0/0
  1026 ;;		On exit  : 0/0
  1027 ;;		Unchanged: 0/0
  1028 ;; Data sizes:     COMRAM   BANK0   BANK1   BANK2   BANK3   BANK4   BANK5   BANK6   BANK7   BANK8   BANK9  BANK10  BANK1
      +1  BANK12  BANK13  BANK14  BANK15
  1029 ;;      Params:         2       0       0       0       0       0       0       0       0       0       0       0       
      +0       0       0       0       0
  1030 ;;      Locals:         1       0       0       0       0       0       0       0       0       0       0       0       
      +0       0       0       0       0
  1031 ;;      Temps:          0       0       0       0       0       0       0       0       0       0       0       0       
      +0       0       0       0       0
  1032 ;;      Totals:         3       0       0       0       0       0       0       0       0       0       0       0       
      +0       0       0       0       0
  1033 ;;Total ram usage:        3 bytes
  1034 ;; Hardware stack levels used: 1
  1035 ;; Hardware stack levels required when called: 1
  1036 ;; This function calls:
  1037 ;;		_gpio_pin_write_logic
  1038 ;; This function is called by:
  1039 ;;		_main
  1040 ;; This function uses a non-reentrant model
  1041 ;;
  1042                           
  1043                           	psect	text1
  1044   001E30                     __ptext1:
  1045                           	callstack 0
  1046   001E30                     _motor_stop:
  1047                           	callstack 29
  1048   001E30                     
  1049                           ;ECU_Layer/DC_Motor/ecu_dc_motor.c: 52:     Std_ReturnType ret = (Std_ReturnType)0x00;
  1050   001E30  0E00               	movlw	0
  1051   001E32  6E41               	movwf	motor_stop@ret^0,c
  1052   001E34                     
  1053                           ;ECU_Layer/DC_Motor/ecu_dc_motor.c: 53:     if(((void*)0) != motor){
  1054   001E34  503F               	movf	motor_stop@motor^0,w,c
  1055   001E36  1040               	iorwf	(motor_stop@motor+1)^0,w,c
  1056   001E38  B4D8               	btfsc	status,2,c
  1057   001E3A  EF21  F00F         	goto	u981
  1058   001E3E  EF23  F00F         	goto	u980
  1059   001E42                     u981:
  1060   001E42  EF36  F00F         	goto	l15
  1061   001E46                     u980:
  1062   001E46  C03F  F035         	movff	motor_stop@motor,gpio_pin_write_logic@_pin_config
  1063   001E4A  C040  F036         	movff	motor_stop@motor+1,gpio_pin_write_logic@_pin_config+1
  1064   001E4E  0E00               	movlw	0
  1065   001E50  6E37               	movwf	gpio_pin_write_logic@logic^0,c
  1066   001E52  ECFB  F009         	call	_gpio_pin_write_logic	;wreg free
  1067   001E56                     
  1068                           ;ECU_Layer/DC_Motor/ecu_dc_motor.c: 56:         ret = gpio_pin_write_logic(&motor->motor
      +                          _pin[0x01], GPIO_LOW);
  1069   001E56  0E01               	movlw	1
  1070   001E58  243F               	addwf	motor_stop@motor^0,w,c
  1071   001E5A  6E35               	movwf	gpio_pin_write_logic@_pin_config^0,c
  1072   001E5C  0E00               	movlw	0
  1073   001E5E  2040               	addwfc	(motor_stop@motor+1)^0,w,c
  1074   001E60  6E36               	movwf	(gpio_pin_write_logic@_pin_config+1)^0,c
  1075   001E62  0E00               	movlw	0
  1076   001E64  6E37               	movwf	gpio_pin_write_logic@logic^0,c
  1077   001E66  ECFB  F009         	call	_gpio_pin_write_logic	;wreg free
  1078   001E6A  6E41               	movwf	motor_stop@ret^0,c
  1079   001E6C                     l15:
  1080                           
  1081                           ;ECU_Layer/DC_Motor/ecu_dc_motor.c: 58:     return ret;
  1082   001E6C  5041               	movf	motor_stop@ret^0,w,c
  1083   001E6E  0012               	return		;funcret
  1084   001E70                     __end_of_motor_stop:
  1085                           	callstack 0
  1086                           
  1087 ;; *************** function _motor_move_right *****************
  1088 ;; Defined at:
  1089 ;;		line 34 in file "ECU_Layer/DC_Motor/ecu_dc_motor.c"
  1090 ;; Parameters:    Size  Location     Type
  1091 ;;  motor           2   10[COMRAM] PTR const struct .
  1092 ;;		 -> motor(2), 
  1093 ;; Auto vars:     Size  Location     Type
  1094 ;;  ret             1   12[COMRAM] unsigned char 
  1095 ;; Return value:  Size  Location     Type
  1096 ;;                  1    wreg      unsigned char 
  1097 ;; Registers used:
  1098 ;;		wreg, fsr2l, fsr2h, status,2, status,0, prodl, prodh, cstack
  1099 ;; Tracked objects:
  1100 ;;		On entry : 0/0
  1101 ;;		On exit  : 0/0
  1102 ;;		Unchanged: 0/0
  1103 ;; Data sizes:     COMRAM   BANK0   BANK1   BANK2   BANK3   BANK4   BANK5   BANK6   BANK7   BANK8   BANK9  BANK10  BANK1
      +1  BANK12  BANK13  BANK14  BANK15
  1104 ;;      Params:         2       0       0       0       0       0       0       0       0       0       0       0       
      +0       0       0       0       0
  1105 ;;      Locals:         1       0       0       0       0       0       0       0       0       0       0       0       
      +0       0       0       0       0
  1106 ;;      Temps:          0       0       0       0       0       0       0       0       0       0       0       0       
      +0       0       0       0       0
  1107 ;;      Totals:         3       0       0       0       0       0       0       0       0       0       0       0       
      +0       0       0       0       0
  1108 ;;Total ram usage:        3 bytes
  1109 ;; Hardware stack levels used: 1
  1110 ;; Hardware stack levels required when called: 1
  1111 ;; This function calls:
  1112 ;;		_gpio_pin_write_logic
  1113 ;; This function is called by:
  1114 ;;		_main
  1115 ;; This function uses a non-reentrant model
  1116 ;;
  1117                           
  1118                           	psect	text2
  1119   001E70                     __ptext2:
  1120                           	callstack 0
  1121   001E70                     _motor_move_right:
  1122                           	callstack 29
  1123   001E70                     
  1124                           ;ECU_Layer/DC_Motor/ecu_dc_motor.c: 35:     Std_ReturnType ret = (Std_ReturnType)0x00;
  1125   001E70  0E00               	movlw	0
  1126   001E72  6E41               	movwf	motor_move_right@ret^0,c
  1127   001E74                     
  1128                           ;ECU_Layer/DC_Motor/ecu_dc_motor.c: 36:     if(((void*)0) != motor){
  1129   001E74  503F               	movf	motor_move_right@motor^0,w,c
  1130   001E76  1040               	iorwf	(motor_move_right@motor+1)^0,w,c
  1131   001E78  B4D8               	btfsc	status,2,c
  1132   001E7A  EF41  F00F         	goto	u971
  1133   001E7E  EF43  F00F         	goto	u970
  1134   001E82                     u971:
  1135   001E82  EF56  F00F         	goto	l11
  1136   001E86                     u970:
  1137   001E86  C03F  F035         	movff	motor_move_right@motor,gpio_pin_write_logic@_pin_config
  1138   001E8A  C040  F036         	movff	motor_move_right@motor+1,gpio_pin_write_logic@_pin_config+1
  1139   001E8E  0E01               	movlw	1
  1140   001E90  6E37               	movwf	gpio_pin_write_logic@logic^0,c
  1141   001E92  ECFB  F009         	call	_gpio_pin_write_logic	;wreg free
  1142   001E96                     
  1143                           ;ECU_Layer/DC_Motor/ecu_dc_motor.c: 39:         ret = gpio_pin_write_logic(&motor->motor
      +                          _pin[0x01], GPIO_LOW);
  1144   001E96  0E01               	movlw	1
  1145   001E98  243F               	addwf	motor_move_right@motor^0,w,c
  1146   001E9A  6E35               	movwf	gpio_pin_write_logic@_pin_config^0,c
  1147   001E9C  0E00               	movlw	0
  1148   001E9E  2040               	addwfc	(motor_move_right@motor+1)^0,w,c
  1149   001EA0  6E36               	movwf	(gpio_pin_write_logic@_pin_config+1)^0,c
  1150   001EA2  0E00               	movlw	0
  1151   001EA4  6E37               	movwf	gpio_pin_write_logic@logic^0,c
  1152   001EA6  ECFB  F009         	call	_gpio_pin_write_logic	;wreg free
  1153   001EAA  6E41               	movwf	motor_move_right@ret^0,c
  1154   001EAC                     l11:
  1155                           
  1156                           ;ECU_Layer/DC_Motor/ecu_dc_motor.c: 41:     return ret;
  1157   001EAC  5041               	movf	motor_move_right@ret^0,w,c
  1158   001EAE  0012               	return		;funcret
  1159   001EB0                     __end_of_motor_move_right:
  1160                           	callstack 0
  1161                           
  1162 ;; *************** function _led_turn_on *****************
  1163 ;; Defined at:
  1164 ;;		line 37 in file "ECU_Layer/LED/ecu_led.c"
  1165 ;; Parameters:    Size  Location     Type
  1166 ;;  led             2   10[COMRAM] PTR const struct .
  1167 ;;		 -> led_opened(1), led_locked(1), 
  1168 ;; Auto vars:     Size  Location     Type
  1169 ;;  pin_config_o    1   14[COMRAM] struct .
  1170 ;;  ret             1   13[COMRAM] unsigned char 
  1171 ;; Return value:  Size  Location     Type
  1172 ;;                  1    wreg      unsigned char 
  1173 ;; Registers used:
  1174 ;;		wreg, fsr2l, fsr2h, status,2, status,0, prodl, prodh, cstack
  1175 ;; Tracked objects:
  1176 ;;		On entry : 0/0
  1177 ;;		On exit  : 0/0
  1178 ;;		Unchanged: 0/0
  1179 ;; Data sizes:     COMRAM   BANK0   BANK1   BANK2   BANK3   BANK4   BANK5   BANK6   BANK7   BANK8   BANK9  BANK10  BANK1
      +1  BANK12  BANK13  BANK14  BANK15
  1180 ;;      Params:         2       0       0       0       0       0       0       0       0       0       0       0       
      +0       0       0       0       0
  1181 ;;      Locals:         2       0       0       0       0       0       0       0       0       0       0       0       
      +0       0       0       0       0
  1182 ;;      Temps:          1       0       0       0       0       0       0       0       0       0       0       0       
      +0       0       0       0       0
  1183 ;;      Totals:         5       0       0       0       0       0       0       0       0       0       0       0       
      +0       0       0       0       0
  1184 ;;Total ram usage:        5 bytes
  1185 ;; Hardware stack levels used: 1
  1186 ;; Hardware stack levels required when called: 1
  1187 ;; This function calls:
  1188 ;;		_gpio_pin_write_logic
  1189 ;; This function is called by:
  1190 ;;		_main
  1191 ;; This function uses a non-reentrant model
  1192 ;;
  1193                           
  1194                           	psect	text3
  1195   001910                     __ptext3:
  1196                           	callstack 0
  1197   001910                     _led_turn_on:
  1198                           	callstack 29
  1199   001910                     
  1200                           ;ECU_Layer/LED/ecu_led.c: 39:     if(led == ((void*)0)){
  1201   001910  503F               	movf	led_turn_on@led^0,w,c
  1202   001912  1040               	iorwf	(led_turn_on@led+1)^0,w,c
  1203   001914  A4D8               	btfss	status,2,c
  1204   001916  EF8F  F00C         	goto	u1011
  1205   00191A  EF91  F00C         	goto	u1010
  1206   00191E                     u1011:
  1207   00191E  EF95  F00C         	goto	l118
  1208   001922                     u1010:
  1209   001922                     
  1210                           ;ECU_Layer/LED/ecu_led.c: 40:         ret = (Std_ReturnType)0x00;
  1211   001922  0E00               	movlw	0
  1212   001924  6E42               	movwf	led_turn_on@ret^0,c
  1213                           
  1214                           ;ECU_Layer/LED/ecu_led.c: 41:     }
  1215   001926  EFC7  F00C         	goto	l1931
  1216   00192A                     l118:
  1217                           
  1218                           ;ECU_Layer/LED/ecu_led.c: 43:         pin_config_t pin_config_obj = {.port = led->port, 
      +                          .pin = led->pin,
  1219   00192A  C062  F043         	movff	led_turn_on@F3030,led_turn_on@pin_config_obj
  1220   00192E  C03F  FFD9         	movff	led_turn_on@led,fsr2l
  1221   001932  C040  FFDA         	movff	led_turn_on@led+1,fsr2h
  1222   001936  50DF               	movf	223,w,c
  1223   001938  0B07               	andlw	7
  1224   00193A  6E41               	movwf	??_led_turn_on^0,c
  1225   00193C  5043               	movf	led_turn_on@pin_config_obj^0,w,c
  1226   00193E  1841               	xorwf	??_led_turn_on^0,w,c
  1227   001940  0BF8               	andlw	-8
  1228   001942  1841               	xorwf	??_led_turn_on^0,w,c
  1229   001944  6E43               	movwf	led_turn_on@pin_config_obj^0,c
  1230   001946  C03F  FFD9         	movff	led_turn_on@led,fsr2l
  1231   00194A  C040  FFDA         	movff	led_turn_on@led+1,fsr2h
  1232   00194E  30DF               	rrcf	223,w,c
  1233   001950  32E8               	rrcf	wreg,f,c
  1234   001952  32E8               	rrcf	wreg,f,c
  1235   001954  0B07               	andlw	7
  1236   001956  6E41               	movwf	??_led_turn_on^0,c
  1237   001958  4641               	rlncf	??_led_turn_on^0,f,c
  1238   00195A  4641               	rlncf	??_led_turn_on^0,f,c
  1239   00195C  4641               	rlncf	??_led_turn_on^0,f,c
  1240   00195E  5043               	movf	led_turn_on@pin_config_obj^0,w,c
  1241   001960  1841               	xorwf	??_led_turn_on^0,w,c
  1242   001962  0BC7               	andlw	-57
  1243   001964  1841               	xorwf	??_led_turn_on^0,w,c
  1244   001966  6E43               	movwf	led_turn_on@pin_config_obj^0,c
  1245   001968  9C43               	bcf	led_turn_on@pin_config_obj^0,6,c
  1246   00196A  C03F  FFD9         	movff	led_turn_on@led,fsr2l
  1247   00196E  C040  FFDA         	movff	led_turn_on@led+1,fsr2h
  1248   001972  ACDF               	btfss	indf2,6,c
  1249   001974  D002               	bra	u1025
  1250   001976  8E43               	bsf	led_turn_on@pin_config_obj^0,7,c
  1251   001978  D001               	bra	u1027
  1252   00197A                     u1025:
  1253   00197A  9E43               	bcf	led_turn_on@pin_config_obj^0,7,c
  1254   00197C                     u1027:
  1255   00197C                     
  1256                           ;ECU_Layer/LED/ecu_led.c: 45:         ret = gpio_pin_write_logic(&pin_config_obj, GPIO_H
      +                          IGH);
  1257   00197C  0E43               	movlw	low led_turn_on@pin_config_obj
  1258   00197E  6E35               	movwf	gpio_pin_write_logic@_pin_config^0,c
  1259   001980  0E00               	movlw	high led_turn_on@pin_config_obj
  1260   001982  6E36               	movwf	(gpio_pin_write_logic@_pin_config+1)^0,c
  1261   001984  0E01               	movlw	1
  1262   001986  6E37               	movwf	gpio_pin_write_logic@logic^0,c
  1263   001988  ECFB  F009         	call	_gpio_pin_write_logic	;wreg free
  1264   00198C  6E42               	movwf	led_turn_on@ret^0,c
  1265   00198E                     l1931:
  1266                           
  1267                           ;ECU_Layer/LED/ecu_led.c: 47:     return ret;
  1268   00198E  5042               	movf	led_turn_on@ret^0,w,c
  1269   001990  0012               	return		;funcret
  1270   001992                     __end_of_led_turn_on:
  1271                           	callstack 0
  1272                           
  1273 ;; *************** function _led_turn_off *****************
  1274 ;; Defined at:
  1275 ;;		line 57 in file "ECU_Layer/LED/ecu_led.c"
  1276 ;; Parameters:    Size  Location     Type
  1277 ;;  led             2   10[COMRAM] PTR const struct .
  1278 ;;		 -> led_opened(1), led_locked(1), 
  1279 ;; Auto vars:     Size  Location     Type
  1280 ;;  pin_config_o    1   14[COMRAM] struct .
  1281 ;;  ret             1   13[COMRAM] unsigned char 
  1282 ;; Return value:  Size  Location     Type
  1283 ;;                  1    wreg      unsigned char 
  1284 ;; Registers used:
  1285 ;;		wreg, fsr2l, fsr2h, status,2, status,0, prodl, prodh, cstack
  1286 ;; Tracked objects:
  1287 ;;		On entry : 0/0
  1288 ;;		On exit  : 0/0
  1289 ;;		Unchanged: 0/0
  1290 ;; Data sizes:     COMRAM   BANK0   BANK1   BANK2   BANK3   BANK4   BANK5   BANK6   BANK7   BANK8   BANK9  BANK10  BANK1
      +1  BANK12  BANK13  BANK14  BANK15
  1291 ;;      Params:         2       0       0       0       0       0       0       0       0       0       0       0       
      +0       0       0       0       0
  1292 ;;      Locals:         2       0       0       0       0       0       0       0       0       0       0       0       
      +0       0       0       0       0
  1293 ;;      Temps:          1       0       0       0       0       0       0       0       0       0       0       0       
      +0       0       0       0       0
  1294 ;;      Totals:         5       0       0       0       0       0       0       0       0       0       0       0       
      +0       0       0       0       0
  1295 ;;Total ram usage:        5 bytes
  1296 ;; Hardware stack levels used: 1
  1297 ;; Hardware stack levels required when called: 1
  1298 ;; This function calls:
  1299 ;;		_gpio_pin_write_logic
  1300 ;; This function is called by:
  1301 ;;		_main
  1302 ;; This function uses a non-reentrant model
  1303 ;;
  1304                           
  1305                           	psect	text4
  1306   001992                     __ptext4:
  1307                           	callstack 0
  1308   001992                     _led_turn_off:
  1309                           	callstack 29
  1310   001992                     
  1311                           ;ECU_Layer/LED/ecu_led.c: 59:     if(led == ((void*)0)){
  1312   001992  503F               	movf	led_turn_off@led^0,w,c
  1313   001994  1040               	iorwf	(led_turn_off@led+1)^0,w,c
  1314   001996  A4D8               	btfss	status,2,c
  1315   001998  EFD0  F00C         	goto	u1031
  1316   00199C  EFD2  F00C         	goto	u1030
  1317   0019A0                     u1031:
  1318   0019A0  EFD6  F00C         	goto	l125
  1319   0019A4                     u1030:
  1320   0019A4                     
  1321                           ;ECU_Layer/LED/ecu_led.c: 60:         ret = (Std_ReturnType)0x00;
  1322   0019A4  0E00               	movlw	0
  1323   0019A6  6E42               	movwf	led_turn_off@ret^0,c
  1324                           
  1325                           ;ECU_Layer/LED/ecu_led.c: 61:     }
  1326   0019A8  EF08  F00D         	goto	l1949
  1327   0019AC                     l125:
  1328                           
  1329                           ;ECU_Layer/LED/ecu_led.c: 63:         pin_config_t pin_config_obj = {.port = led->port, 
      +                          .pin = led->pin,
  1330   0019AC  C061  F043         	movff	led_turn_off@F3035,led_turn_off@pin_config_obj
  1331   0019B0  C03F  FFD9         	movff	led_turn_off@led,fsr2l
  1332   0019B4  C040  FFDA         	movff	led_turn_off@led+1,fsr2h
  1333   0019B8  50DF               	movf	223,w,c
  1334   0019BA  0B07               	andlw	7
  1335   0019BC  6E41               	movwf	??_led_turn_off^0,c
  1336   0019BE  5043               	movf	led_turn_off@pin_config_obj^0,w,c
  1337   0019C0  1841               	xorwf	??_led_turn_off^0,w,c
  1338   0019C2  0BF8               	andlw	-8
  1339   0019C4  1841               	xorwf	??_led_turn_off^0,w,c
  1340   0019C6  6E43               	movwf	led_turn_off@pin_config_obj^0,c
  1341   0019C8  C03F  FFD9         	movff	led_turn_off@led,fsr2l
  1342   0019CC  C040  FFDA         	movff	led_turn_off@led+1,fsr2h
  1343   0019D0  30DF               	rrcf	223,w,c
  1344   0019D2  32E8               	rrcf	wreg,f,c
  1345   0019D4  32E8               	rrcf	wreg,f,c
  1346   0019D6  0B07               	andlw	7
  1347   0019D8  6E41               	movwf	??_led_turn_off^0,c
  1348   0019DA  4641               	rlncf	??_led_turn_off^0,f,c
  1349   0019DC  4641               	rlncf	??_led_turn_off^0,f,c
  1350   0019DE  4641               	rlncf	??_led_turn_off^0,f,c
  1351   0019E0  5043               	movf	led_turn_off@pin_config_obj^0,w,c
  1352   0019E2  1841               	xorwf	??_led_turn_off^0,w,c
  1353   0019E4  0BC7               	andlw	-57
  1354   0019E6  1841               	xorwf	??_led_turn_off^0,w,c
  1355   0019E8  6E43               	movwf	led_turn_off@pin_config_obj^0,c
  1356   0019EA  9C43               	bcf	led_turn_off@pin_config_obj^0,6,c
  1357   0019EC  C03F  FFD9         	movff	led_turn_off@led,fsr2l
  1358   0019F0  C040  FFDA         	movff	led_turn_off@led+1,fsr2h
  1359   0019F4  ACDF               	btfss	indf2,6,c
  1360   0019F6  D002               	bra	u1045
  1361   0019F8  8E43               	bsf	led_turn_off@pin_config_obj^0,7,c
  1362   0019FA  D001               	bra	u1047
  1363   0019FC                     u1045:
  1364   0019FC  9E43               	bcf	led_turn_off@pin_config_obj^0,7,c
  1365   0019FE                     u1047:
  1366   0019FE                     
  1367                           ;ECU_Layer/LED/ecu_led.c: 65:         ret = gpio_pin_write_logic(&pin_config_obj, GPIO_L
      +                          OW);
  1368   0019FE  0E43               	movlw	low led_turn_off@pin_config_obj
  1369   001A00  6E35               	movwf	gpio_pin_write_logic@_pin_config^0,c
  1370   001A02  0E00               	movlw	high led_turn_off@pin_config_obj
  1371   001A04  6E36               	movwf	(gpio_pin_write_logic@_pin_config+1)^0,c
  1372   001A06  0E00               	movlw	0
  1373   001A08  6E37               	movwf	gpio_pin_write_logic@logic^0,c
  1374   001A0A  ECFB  F009         	call	_gpio_pin_write_logic	;wreg free
  1375   001A0E  6E42               	movwf	led_turn_off@ret^0,c
  1376   001A10                     l1949:
  1377                           
  1378                           ;ECU_Layer/LED/ecu_led.c: 67:     return ret;
  1379   001A10  5042               	movf	led_turn_off@ret^0,w,c
  1380   001A12  0012               	return		;funcret
  1381   001A14                     __end_of_led_turn_off:
  1382                           	callstack 0
  1383                           
  1384 ;; *************** function _lcd_4bit_send_string_pos *****************
  1385 ;; Defined at:
  1386 ;;		line 138 in file "ECU_Layer/LCD/ecu_lcd.c"
  1387 ;; Parameters:    Size  Location     Type
  1388 ;;  lcd             2   30[COMRAM] PTR const struct .
  1389 ;;		 -> lcd(6), 
  1390 ;;  row             1   32[COMRAM] unsigned char 
  1391 ;;  colomn          1   33[COMRAM] unsigned char 
  1392 ;;  string          2   34[COMRAM] PTR unsigned char 
  1393 ;;		 -> STR_4(18), STR_3(20), STR_2(9), 
  1394 ;; Auto vars:     Size  Location     Type
  1395 ;;  ret             1   36[COMRAM] unsigned char 
  1396 ;; Return value:  Size  Location     Type
  1397 ;;                  1    wreg      unsigned char 
  1398 ;; Registers used:
  1399 ;;		wreg, fsr2l, fsr2h, status,2, status,0, tblptrl, tblptrh, tblptru, prodl, prodh, cstack
  1400 ;; Tracked objects:
  1401 ;;		On entry : 0/0
  1402 ;;		On exit  : 0/0
  1403 ;;		Unchanged: 0/0
  1404 ;; Data sizes:     COMRAM   BANK0   BANK1   BANK2   BANK3   BANK4   BANK5   BANK6   BANK7   BANK8   BANK9  BANK10  BANK1
      +1  BANK12  BANK13  BANK14  BANK15
  1405 ;;      Params:         6       0       0       0       0       0       0       0       0       0       0       0       
      +0       0       0       0       0
  1406 ;;      Locals:         1       0       0       0       0       0       0       0       0       0       0       0       
      +0       0       0       0       0
  1407 ;;      Temps:          0       0       0       0       0       0       0       0       0       0       0       0       
      +0       0       0       0       0
  1408 ;;      Totals:         7       0       0       0       0       0       0       0       0       0       0       0       
      +0       0       0       0       0
  1409 ;;Total ram usage:        7 bytes
  1410 ;; Hardware stack levels used: 1
  1411 ;; Hardware stack levels required when called: 4
  1412 ;; This function calls:
  1413 ;;		_lcd_4bit_send_string
  1414 ;;		_lcd_4bit_set_cursor
  1415 ;; This function is called by:
  1416 ;;		_main
  1417 ;; This function uses a non-reentrant model
  1418 ;;
  1419                           
  1420                           	psect	text5
  1421   001DAA                     __ptext5:
  1422                           	callstack 0
  1423   001DAA                     _lcd_4bit_send_string_pos:
  1424                           	callstack 26
  1425   001DAA                     
  1426                           ;ECU_Layer/LCD/ecu_lcd.c: 139:     Std_ReturnType ret = (Std_ReturnType)0x00;
  1427   001DAA  0E00               	movlw	0
  1428   001DAC  6E59               	movwf	lcd_4bit_send_string_pos@ret^0,c
  1429   001DAE                     
  1430                           ;ECU_Layer/LCD/ecu_lcd.c: 140:     if(((void*)0) != lcd){
  1431   001DAE  5053               	movf	lcd_4bit_send_string_pos@lcd^0,w,c
  1432   001DB0  1054               	iorwf	(lcd_4bit_send_string_pos@lcd+1)^0,w,c
  1433   001DB2  B4D8               	btfsc	status,2,c
  1434   001DB4  EFDE  F00E         	goto	u1001
  1435   001DB8  EFE0  F00E         	goto	u1000
  1436   001DBC                     u1001:
  1437   001DBC  EFF5  F00E         	goto	l1913
  1438   001DC0                     u1000:
  1439   001DC0  C053  F04C         	movff	lcd_4bit_send_string_pos@lcd,lcd_4bit_set_cursor@lcd
  1440   001DC4  C054  F04D         	movff	lcd_4bit_send_string_pos@lcd+1,lcd_4bit_set_cursor@lcd+1
  1441   001DC8  C055  F04E         	movff	lcd_4bit_send_string_pos@row,lcd_4bit_set_cursor@row
  1442   001DCC  C056  F04F         	movff	lcd_4bit_send_string_pos@colomn,lcd_4bit_set_cursor@colomn
  1443   001DD0  ECEF  F00B         	call	_lcd_4bit_set_cursor	;wreg free
  1444   001DD4                     
  1445                           ;ECU_Layer/LCD/ecu_lcd.c: 143:         ret = lcd_4bit_send_string(lcd, string);
  1446   001DD4  C053  F04C         	movff	lcd_4bit_send_string_pos@lcd,lcd_4bit_send_string@lcd
  1447   001DD8  C054  F04D         	movff	lcd_4bit_send_string_pos@lcd+1,lcd_4bit_send_string@lcd+1
  1448   001DDC  C057  F04E         	movff	lcd_4bit_send_string_pos@string,lcd_4bit_send_string@string
  1449   001DE0  C058  F04F         	movff	lcd_4bit_send_string_pos@string+1,lcd_4bit_send_string@string+1
  1450   001DE4  EC84  F00E         	call	_lcd_4bit_send_string	;wreg free
  1451   001DE8  6E59               	movwf	lcd_4bit_send_string_pos@ret^0,c
  1452   001DEA                     l1913:
  1453                           
  1454                           ;ECU_Layer/LCD/ecu_lcd.c: 145:     return ret;
  1455   001DEA  5059               	movf	lcd_4bit_send_string_pos@ret^0,w,c
  1456   001DEC  0012               	return		;funcret
  1457   001DEE                     __end_of_lcd_4bit_send_string_pos:
  1458                           	callstack 0
  1459                           
  1460 ;; *************** function _lcd_4bit_send_string *****************
  1461 ;; Defined at:
  1462 ;;		line 117 in file "ECU_Layer/LCD/ecu_lcd.c"
  1463 ;; Parameters:    Size  Location     Type
  1464 ;;  lcd             2   23[COMRAM] PTR const struct .
  1465 ;;		 -> lcd(6), 
  1466 ;;  string          2   25[COMRAM] PTR unsigned char 
  1467 ;;		 -> STR_5(16), STR_4(18), STR_3(20), STR_2(9), 
  1468 ;;		 -> STR_1(16), 
  1469 ;; Auto vars:     Size  Location     Type
  1470 ;;  ret             1   27[COMRAM] unsigned char 
  1471 ;; Return value:  Size  Location     Type
  1472 ;;                  1    wreg      unsigned char 
  1473 ;; Registers used:
  1474 ;;		wreg, fsr2l, fsr2h, status,2, status,0, tblptrl, tblptrh, tblptru, prodl, prodh, cstack
  1475 ;; Tracked objects:
  1476 ;;		On entry : 0/0
  1477 ;;		On exit  : 0/0
  1478 ;;		Unchanged: 0/0
  1479 ;; Data sizes:     COMRAM   BANK0   BANK1   BANK2   BANK3   BANK4   BANK5   BANK6   BANK7   BANK8   BANK9  BANK10  BANK1
      +1  BANK12  BANK13  BANK14  BANK15
  1480 ;;      Params:         4       0       0       0       0       0       0       0       0       0       0       0       
      +0       0       0       0       0
  1481 ;;      Locals:         1       0       0       0       0       0       0       0       0       0       0       0       
      +0       0       0       0       0
  1482 ;;      Temps:          0       0       0       0       0       0       0       0       0       0       0       0       
      +0       0       0       0       0
  1483 ;;      Totals:         5       0       0       0       0       0       0       0       0       0       0       0       
      +0       0       0       0       0
  1484 ;;Total ram usage:        5 bytes
  1485 ;; Hardware stack levels used: 1
  1486 ;; Hardware stack levels required when called: 3
  1487 ;; This function calls:
  1488 ;;		_lcd_4bit_send_char
  1489 ;; This function is called by:
  1490 ;;		_lcd_4bit_send_string_pos
  1491 ;;		_main
  1492 ;; This function uses a non-reentrant model
  1493 ;;
  1494                           
  1495                           	psect	text6
  1496   001D08                     __ptext6:
  1497                           	callstack 0
  1498   001D08                     _lcd_4bit_send_string:
  1499                           	callstack 26
  1500   001D08                     
  1501                           ;ECU_Layer/LCD/ecu_lcd.c: 118:     Std_ReturnType ret = (Std_ReturnType)0x00;
  1502   001D08  0E00               	movlw	0
  1503   001D0A  6E50               	movwf	lcd_4bit_send_string@ret^0,c
  1504   001D0C                     
  1505                           ;ECU_Layer/LCD/ecu_lcd.c: 119:     if(((void*)0) != lcd){
  1506   001D0C  504C               	movf	lcd_4bit_send_string@lcd^0,w,c
  1507   001D0E  104D               	iorwf	(lcd_4bit_send_string@lcd+1)^0,w,c
  1508   001D10  B4D8               	btfsc	status,2,c
  1509   001D12  EF8D  F00E         	goto	u951
  1510   001D16  EF8F  F00E         	goto	u950
  1511   001D1A                     u951:
  1512   001D1A  EFAE  F00E         	goto	l1847
  1513   001D1E                     u950:
  1514   001D1E                     
  1515                           ;ECU_Layer/LCD/ecu_lcd.c: 120:         ret = (Std_ReturnType)0x01;
  1516   001D1E  0E01               	movlw	1
  1517   001D20  6E50               	movwf	lcd_4bit_send_string@ret^0,c
  1518   001D22                     l1843:
  1519                           
  1520                           ;ECU_Layer/LCD/ecu_lcd.c: 122:             lcd_4bit_send_char(lcd, *string);
  1521   001D22  C04C  F048         	movff	lcd_4bit_send_string@lcd,lcd_4bit_send_char@lcd
  1522   001D26  C04D  F049         	movff	lcd_4bit_send_string@lcd+1,lcd_4bit_send_char@lcd+1
  1523   001D2A  C04E  FFF6         	movff	lcd_4bit_send_string@string,tblptrl
  1524   001D2E  C04F  FFF7         	movff	lcd_4bit_send_string@string+1,tblptrh
  1525   001D32                     	if	0	;tblptru may be non-zero
  1526   001D32                     	endif
  1527   001D32                     	if	0	;tblptru may be non-zero
  1528   001D32                     	endif
  1529   001D32  0008               	tblrd		*
  1530   001D34  CFF5 F04A          	movff	tablat,lcd_4bit_send_char@data
  1531   001D38  EC1E  F00E         	call	_lcd_4bit_send_char	;wreg free
  1532   001D3C                     
  1533                           ;ECU_Layer/LCD/ecu_lcd.c: 123:         } while(*(++string));
  1534   001D3C  4A4E               	infsnz	lcd_4bit_send_string@string^0,f,c
  1535   001D3E  2A4F               	incf	(lcd_4bit_send_string@string+1)^0,f,c
  1536   001D40  C04E  FFF6         	movff	lcd_4bit_send_string@string,tblptrl
  1537   001D44  C04F  FFF7         	movff	lcd_4bit_send_string@string+1,tblptrh
  1538   001D48                     	if	0	;tblptru may be non-zero
  1539   001D48                     	endif
  1540   001D48                     	if	0	;tblptru may be non-zero
  1541   001D48                     	endif
  1542   001D48  0008               	tblrd		*
  1543   001D4A  50F5               	movf	tablat,w,c
  1544   001D4C  0900               	iorlw	0
  1545   001D4E  A4D8               	btfss	status,2,c
  1546   001D50  EFAC  F00E         	goto	u961
  1547   001D54  EFAE  F00E         	goto	u960
  1548   001D58                     u961:
  1549   001D58  EF91  F00E         	goto	l1843
  1550   001D5C                     u960:
  1551   001D5C                     l1847:
  1552                           
  1553                           ;ECU_Layer/LCD/ecu_lcd.c: 125:     return ret;
  1554   001D5C  5050               	movf	lcd_4bit_send_string@ret^0,w,c
  1555   001D5E  0012               	return		;funcret
  1556   001D60                     __end_of_lcd_4bit_send_string:
  1557                           	callstack 0
  1558                           
  1559 ;; *************** function _lcd_4bit_send_char_pos *****************
  1560 ;; Defined at:
  1561 ;;		line 99 in file "ECU_Layer/LCD/ecu_lcd.c"
  1562 ;; Parameters:    Size  Location     Type
  1563 ;;  lcd             2   30[COMRAM] PTR const struct .
  1564 ;;		 -> lcd(6), 
  1565 ;;  row             1   32[COMRAM] unsigned char 
  1566 ;;  colomn          1   33[COMRAM] unsigned char 
  1567 ;;  data            1   34[COMRAM] unsigned char 
  1568 ;; Auto vars:     Size  Location     Type
  1569 ;;  ret             1   35[COMRAM] unsigned char 
  1570 ;; Return value:  Size  Location     Type
  1571 ;;                  1    wreg      unsigned char 
  1572 ;; Registers used:
  1573 ;;		wreg, fsr2l, fsr2h, status,2, status,0, prodl, prodh, cstack
  1574 ;; Tracked objects:
  1575 ;;		On entry : 0/0
  1576 ;;		On exit  : 0/0
  1577 ;;		Unchanged: 0/0
  1578 ;; Data sizes:     COMRAM   BANK0   BANK1   BANK2   BANK3   BANK4   BANK5   BANK6   BANK7   BANK8   BANK9  BANK10  BANK1
      +1  BANK12  BANK13  BANK14  BANK15
  1579 ;;      Params:         5       0       0       0       0       0       0       0       0       0       0       0       
      +0       0       0       0       0
  1580 ;;      Locals:         1       0       0       0       0       0       0       0       0       0       0       0       
      +0       0       0       0       0
  1581 ;;      Temps:          0       0       0       0       0       0       0       0       0       0       0       0       
      +0       0       0       0       0
  1582 ;;      Totals:         6       0       0       0       0       0       0       0       0       0       0       0       
      +0       0       0       0       0
  1583 ;;Total ram usage:        6 bytes
  1584 ;; Hardware stack levels used: 1
  1585 ;; Hardware stack levels required when called: 4
  1586 ;; This function calls:
  1587 ;;		_lcd_4bit_send_char
  1588 ;;		_lcd_4bit_set_cursor
  1589 ;; This function is called by:
  1590 ;;		_main
  1591 ;; This function uses a non-reentrant model
  1592 ;;
  1593                           
  1594                           	psect	text7
  1595   001EB0                     __ptext7:
  1596                           	callstack 0
  1597   001EB0                     _lcd_4bit_send_char_pos:
  1598                           	callstack 26
  1599   001EB0                     
  1600                           ;ECU_Layer/LCD/ecu_lcd.c: 100:     Std_ReturnType ret = (Std_ReturnType)0x00;
  1601   001EB0  0E00               	movlw	0
  1602   001EB2  6E58               	movwf	lcd_4bit_send_char_pos@ret^0,c
  1603   001EB4                     
  1604                           ;ECU_Layer/LCD/ecu_lcd.c: 101:     if(((void*)0) != lcd){
  1605   001EB4  5053               	movf	lcd_4bit_send_char_pos@lcd^0,w,c
  1606   001EB6  1054               	iorwf	(lcd_4bit_send_char_pos@lcd+1)^0,w,c
  1607   001EB8  B4D8               	btfsc	status,2,c
  1608   001EBA  EF61  F00F         	goto	u991
  1609   001EBE  EF63  F00F         	goto	u990
  1610   001EC2                     u991:
  1611   001EC2  EF76  F00F         	goto	l74
  1612   001EC6                     u990:
  1613   001EC6  C053  F04C         	movff	lcd_4bit_send_char_pos@lcd,lcd_4bit_set_cursor@lcd
  1614   001ECA  C054  F04D         	movff	lcd_4bit_send_char_pos@lcd+1,lcd_4bit_set_cursor@lcd+1
  1615   001ECE  C055  F04E         	movff	lcd_4bit_send_char_pos@row,lcd_4bit_set_cursor@row
  1616   001ED2  C056  F04F         	movff	lcd_4bit_send_char_pos@colomn,lcd_4bit_set_cursor@colomn
  1617   001ED6  ECEF  F00B         	call	_lcd_4bit_set_cursor	;wreg free
  1618   001EDA                     
  1619                           ;ECU_Layer/LCD/ecu_lcd.c: 104:         ret = lcd_4bit_send_char(lcd, data);
  1620   001EDA  C053  F048         	movff	lcd_4bit_send_char_pos@lcd,lcd_4bit_send_char@lcd
  1621   001EDE  C054  F049         	movff	lcd_4bit_send_char_pos@lcd+1,lcd_4bit_send_char@lcd+1
  1622   001EE2  C057  F04A         	movff	lcd_4bit_send_char_pos@data,lcd_4bit_send_char@data
  1623   001EE6  EC1E  F00E         	call	_lcd_4bit_send_char	;wreg free
  1624   001EEA  6E58               	movwf	lcd_4bit_send_char_pos@ret^0,c
  1625   001EEC                     l74:
  1626                           
  1627                           ;ECU_Layer/LCD/ecu_lcd.c: 106:     return ret;
  1628   001EEC  5058               	movf	lcd_4bit_send_char_pos@ret^0,w,c
  1629   001EEE  0012               	return		;funcret
  1630   001EF0                     __end_of_lcd_4bit_send_char_pos:
  1631                           	callstack 0
  1632                           
  1633 ;; *************** function _lcd_4bit_set_cursor *****************
  1634 ;; Defined at:
  1635 ;;		line 193 in file "ECU_Layer/LCD/ecu_lcd.c"
  1636 ;; Parameters:    Size  Location     Type
  1637 ;;  lcd             2   23[COMRAM] PTR const struct .
  1638 ;;		 -> lcd(6), 
  1639 ;;  row             1   25[COMRAM] unsigned char 
  1640 ;;  colomn          1   26[COMRAM] unsigned char 
  1641 ;; Auto vars:     Size  Location     Type
  1642 ;;  ret             1   29[COMRAM] unsigned char 
  1643 ;; Return value:  Size  Location     Type
  1644 ;;                  1    wreg      unsigned char 
  1645 ;; Registers used:
  1646 ;;		wreg, fsr2l, fsr2h, status,2, status,0, prodl, prodh, cstack
  1647 ;; Tracked objects:
  1648 ;;		On entry : 0/0
  1649 ;;		On exit  : 0/0
  1650 ;;		Unchanged: 0/0
  1651 ;; Data sizes:     COMRAM   BANK0   BANK1   BANK2   BANK3   BANK4   BANK5   BANK6   BANK7   BANK8   BANK9  BANK10  BANK1
      +1  BANK12  BANK13  BANK14  BANK15
  1652 ;;      Params:         4       0       0       0       0       0       0       0       0       0       0       0       
      +0       0       0       0       0
  1653 ;;      Locals:         1       0       0       0       0       0       0       0       0       0       0       0       
      +0       0       0       0       0
  1654 ;;      Temps:          2       0       0       0       0       0       0       0       0       0       0       0       
      +0       0       0       0       0
  1655 ;;      Totals:         7       0       0       0       0       0       0       0       0       0       0       0       
      +0       0       0       0       0
  1656 ;;Total ram usage:        7 bytes
  1657 ;; Hardware stack levels used: 1
  1658 ;; Hardware stack levels required when called: 3
  1659 ;; This function calls:
  1660 ;;		_lcd_4bit_send_command
  1661 ;; This function is called by:
  1662 ;;		_lcd_4bit_send_char_pos
  1663 ;;		_lcd_4bit_send_string_pos
  1664 ;; This function uses a non-reentrant model
  1665 ;;
  1666                           
  1667                           	psect	text8
  1668   0017DE                     __ptext8:
  1669                           	callstack 0
  1670   0017DE                     _lcd_4bit_set_cursor:
  1671                           	callstack 26
  1672   0017DE                     
  1673                           ;ECU_Layer/LCD/ecu_lcd.c: 194:     Std_ReturnType ret = (Std_ReturnType)0x00;
  1674   0017DE  0E00               	movlw	0
  1675   0017E0  6E52               	movwf	lcd_4bit_set_cursor@ret^0,c
  1676   0017E2                     
  1677                           ;ECU_Layer/LCD/ecu_lcd.c: 195:     if(((void*)0) != lcd && row <= 2 && colomn <= 20){
  1678   0017E2  504C               	movf	lcd_4bit_set_cursor@lcd^0,w,c
  1679   0017E4  104D               	iorwf	(lcd_4bit_set_cursor@lcd+1)^0,w,c
  1680   0017E6  B4D8               	btfsc	status,2,c
  1681   0017E8  EFF8  F00B         	goto	u921
  1682   0017EC  EFFA  F00B         	goto	u920
  1683   0017F0                     u921:
  1684   0017F0  EF3A  F00C         	goto	l1829
  1685   0017F4                     u920:
  1686   0017F4  0E03               	movlw	3
  1687   0017F6  604E               	cpfslt	lcd_4bit_set_cursor@row^0,c
  1688   0017F8  EF00  F00C         	goto	u931
  1689   0017FC  EF02  F00C         	goto	u930
  1690   001800                     u931:
  1691   001800  EF3A  F00C         	goto	l1829
  1692   001804                     u930:
  1693   001804  0E15               	movlw	21
  1694   001806  604F               	cpfslt	lcd_4bit_set_cursor@colomn^0,c
  1695   001808  EF08  F00C         	goto	u941
  1696   00180C  EF0A  F00C         	goto	u940
  1697   001810                     u941:
  1698   001810  EF3A  F00C         	goto	l1829
  1699   001814                     u940:
  1700   001814                     
  1701                           ;ECU_Layer/LCD/ecu_lcd.c: 196:         colomn--;
  1702   001814  064F               	decf	lcd_4bit_set_cursor@colomn^0,f,c
  1703                           
  1704                           ;ECU_Layer/LCD/ecu_lcd.c: 197:         switch(row){
  1705   001816  EF25  F00C         	goto	l1827
  1706   00181A                     l1821:
  1707   00181A  C04C  F048         	movff	lcd_4bit_set_cursor@lcd,lcd_4bit_send_command@lcd
  1708   00181E  C04D  F049         	movff	lcd_4bit_set_cursor@lcd+1,lcd_4bit_send_command@lcd+1
  1709   001822  504F               	movf	lcd_4bit_set_cursor@colomn^0,w,c
  1710   001824  0F80               	addlw	128
  1711   001826  6E4A               	movwf	lcd_4bit_send_command@command^0,c
  1712   001828  EC51  F00E         	call	_lcd_4bit_send_command	;wreg free
  1713   00182C  6E52               	movwf	lcd_4bit_set_cursor@ret^0,c
  1714   00182E  EF3A  F00C         	goto	l1829
  1715   001832                     l1823:
  1716   001832  C04C  F048         	movff	lcd_4bit_set_cursor@lcd,lcd_4bit_send_command@lcd
  1717   001836  C04D  F049         	movff	lcd_4bit_set_cursor@lcd+1,lcd_4bit_send_command@lcd+1
  1718   00183A  504F               	movf	lcd_4bit_set_cursor@colomn^0,w,c
  1719   00183C  0FC0               	addlw	192
  1720   00183E  6E4A               	movwf	lcd_4bit_send_command@command^0,c
  1721   001840  EC51  F00E         	call	_lcd_4bit_send_command	;wreg free
  1722   001844  6E52               	movwf	lcd_4bit_set_cursor@ret^0,c
  1723   001846  EF3A  F00C         	goto	l1829
  1724   00184A                     l1827:
  1725   00184A  504E               	movf	lcd_4bit_set_cursor@row^0,w,c
  1726   00184C  6E50               	movwf	??_lcd_4bit_set_cursor^0,c
  1727   00184E  6A51               	clrf	(??_lcd_4bit_set_cursor+1)^0,c
  1728                           
  1729                           ; Switch on 2 bytes has been partitioned into a top level switch of size 1, and 1 sub-sw
      +                          itches
  1730                           ; Switch size 1, requested type "simple"
  1731                           ; Number of cases is 1, Range of values is 0 to 0
  1732                           ; switch strategies available:
  1733                           ; Name         Instructions Cycles
  1734                           ; simple_byte            4     3 (average)
  1735                           ;	Chosen strategy is simple_byte
  1736   001850  5051               	movf	(??_lcd_4bit_set_cursor+1)^0,w,c
  1737   001852  0A00               	xorlw	0	; case 0
  1738   001854  B4D8               	btfsc	status,2,c
  1739   001856  EF2F  F00C         	goto	l2053
  1740   00185A  EF3A  F00C         	goto	l1829
  1741   00185E                     l2053:
  1742                           
  1743                           ; Switch size 1, requested type "simple"
  1744                           ; Number of cases is 2, Range of values is 1 to 2
  1745                           ; switch strategies available:
  1746                           ; Name         Instructions Cycles
  1747                           ; simple_byte            7     4 (average)
  1748                           ;	Chosen strategy is simple_byte
  1749   00185E  5050               	movf	??_lcd_4bit_set_cursor^0,w,c
  1750   001860  0A01               	xorlw	1	; case 1
  1751   001862  B4D8               	btfsc	status,2,c
  1752   001864  EF0D  F00C         	goto	l1821
  1753   001868  0A03               	xorlw	3	; case 2
  1754   00186A  B4D8               	btfsc	status,2,c
  1755   00186C  EF19  F00C         	goto	l1823
  1756   001870  EF3A  F00C         	goto	l1829
  1757   001874                     l1829:
  1758                           
  1759                           ;ECU_Layer/LCD/ecu_lcd.c: 203:     return ret;
  1760   001874  5052               	movf	lcd_4bit_set_cursor@ret^0,w,c
  1761   001876  0012               	return		;funcret
  1762   001878                     __end_of_lcd_4bit_set_cursor:
  1763                           	callstack 0
  1764                           
  1765 ;; *************** function _lcd_4bit_send_char *****************
  1766 ;; Defined at:
  1767 ;;		line 76 in file "ECU_Layer/LCD/ecu_lcd.c"
  1768 ;; Parameters:    Size  Location     Type
  1769 ;;  lcd             2   19[COMRAM] PTR const struct .
  1770 ;;		 -> lcd(6), 
  1771 ;;  data            1   21[COMRAM] unsigned char 
  1772 ;; Auto vars:     Size  Location     Type
  1773 ;;  ret             1   22[COMRAM] unsigned char 
  1774 ;; Return value:  Size  Location     Type
  1775 ;;                  1    wreg      unsigned char 
  1776 ;; Registers used:
  1777 ;;		wreg, fsr2l, fsr2h, status,2, status,0, prodl, prodh, cstack
  1778 ;; Tracked objects:
  1779 ;;		On entry : 0/0
  1780 ;;		On exit  : 0/0
  1781 ;;		Unchanged: 0/0
  1782 ;; Data sizes:     COMRAM   BANK0   BANK1   BANK2   BANK3   BANK4   BANK5   BANK6   BANK7   BANK8   BANK9  BANK10  BANK1
      +1  BANK12  BANK13  BANK14  BANK15
  1783 ;;      Params:         3       0       0       0       0       0       0       0       0       0       0       0       
      +0       0       0       0       0
  1784 ;;      Locals:         1       0       0       0       0       0       0       0       0       0       0       0       
      +0       0       0       0       0
  1785 ;;      Temps:          0       0       0       0       0       0       0       0       0       0       0       0       
      +0       0       0       0       0
  1786 ;;      Totals:         4       0       0       0       0       0       0       0       0       0       0       0       
      +0       0       0       0       0
  1787 ;;Total ram usage:        4 bytes
  1788 ;; Hardware stack levels used: 1
  1789 ;; Hardware stack levels required when called: 2
  1790 ;; This function calls:
  1791 ;;		_gpio_pin_write_logic
  1792 ;;		_lcd_send_4bit
  1793 ;;		_send_4bit_enable_signal
  1794 ;; This function is called by:
  1795 ;;		_lcd_4bit_send_char_pos
  1796 ;;		_lcd_4bit_send_string
  1797 ;; This function uses a non-reentrant model
  1798 ;;
  1799                           
  1800                           	psect	text9
  1801   001C3C                     __ptext9:
  1802                           	callstack 0
  1803   001C3C                     _lcd_4bit_send_char:
  1804                           	callstack 26
  1805   001C3C                     
  1806                           ;ECU_Layer/LCD/ecu_lcd.c: 77:     Std_ReturnType ret = (Std_ReturnType)0x00;
  1807   001C3C  0E00               	movlw	0
  1808   001C3E  6E4B               	movwf	lcd_4bit_send_char@ret^0,c
  1809   001C40                     
  1810                           ;ECU_Layer/LCD/ecu_lcd.c: 78:     if(((void*)0) != lcd){
  1811   001C40  5048               	movf	lcd_4bit_send_char@lcd^0,w,c
  1812   001C42  1049               	iorwf	(lcd_4bit_send_char@lcd+1)^0,w,c
  1813   001C44  B4D8               	btfsc	status,2,c
  1814   001C46  EF27  F00E         	goto	u841
  1815   001C4A  EF29  F00E         	goto	u840
  1816   001C4E                     u841:
  1817   001C4E  EF4F  F00E         	goto	l1749
  1818   001C52                     u840:
  1819   001C52  C048  F035         	movff	lcd_4bit_send_char@lcd,gpio_pin_write_logic@_pin_config
  1820   001C56  C049  F036         	movff	lcd_4bit_send_char@lcd+1,gpio_pin_write_logic@_pin_config+1
  1821   001C5A  0E01               	movlw	1
  1822   001C5C  6E37               	movwf	gpio_pin_write_logic@logic^0,c
  1823   001C5E  ECFB  F009         	call	_gpio_pin_write_logic	;wreg free
  1824   001C62  C048  F03F         	movff	lcd_4bit_send_char@lcd,lcd_send_4bit@lcd
  1825   001C66  C049  F040         	movff	lcd_4bit_send_char@lcd+1,lcd_send_4bit@lcd+1
  1826   001C6A  384A               	swapf	lcd_4bit_send_char@data^0,w,c
  1827   001C6C  0B0F               	andlw	15
  1828   001C6E  6E41               	movwf	lcd_send_4bit@data^0,c
  1829   001C70  EC49  F00D         	call	_lcd_send_4bit	;wreg free
  1830   001C74  C048  F03F         	movff	lcd_4bit_send_char@lcd,send_4bit_enable_signal@lcd
  1831   001C78  C049  F040         	movff	lcd_4bit_send_char@lcd+1,send_4bit_enable_signal@lcd+1
  1832   001C7C  ECB0  F00E         	call	_send_4bit_enable_signal	;wreg free
  1833   001C80  C048  F03F         	movff	lcd_4bit_send_char@lcd,lcd_send_4bit@lcd
  1834   001C84  C049  F040         	movff	lcd_4bit_send_char@lcd+1,lcd_send_4bit@lcd+1
  1835   001C88  C04A  F041         	movff	lcd_4bit_send_char@data,lcd_send_4bit@data
  1836   001C8C  EC49  F00D         	call	_lcd_send_4bit	;wreg free
  1837   001C90                     
  1838                           ;ECU_Layer/LCD/ecu_lcd.c: 84:         ret = send_4bit_enable_signal(lcd);
  1839   001C90  C048  F03F         	movff	lcd_4bit_send_char@lcd,send_4bit_enable_signal@lcd
  1840   001C94  C049  F040         	movff	lcd_4bit_send_char@lcd+1,send_4bit_enable_signal@lcd+1
  1841   001C98  ECB0  F00E         	call	_send_4bit_enable_signal	;wreg free
  1842   001C9C  6E4B               	movwf	lcd_4bit_send_char@ret^0,c
  1843   001C9E                     l1749:
  1844                           
  1845                           ;ECU_Layer/LCD/ecu_lcd.c: 86:     return ret;
  1846   001C9E  504B               	movf	lcd_4bit_send_char@ret^0,w,c
  1847   001CA0  0012               	return		;funcret
  1848   001CA2                     __end_of_lcd_4bit_send_char:
  1849                           	callstack 0
  1850                           
  1851 ;; *************** function _keypad_read_value *****************
  1852 ;; Defined at:
  1853 ;;		line 88 in file "application.c"
  1854 ;; Parameters:    Size  Location     Type
  1855 ;;		None
  1856 ;; Auto vars:     Size  Location     Type
  1857 ;;  new_value       1   22[COMRAM] unsigned char 
  1858 ;;  current_valu    1   21[COMRAM] unsigned char 
  1859 ;; Return value:  Size  Location     Type
  1860 ;;                  1    wreg      unsigned char 
  1861 ;; Registers used:
  1862 ;;		wreg, fsr2l, fsr2h, status,2, status,0, tblptrl, tblptrh, tblptru, prodl, prodh, cstack
  1863 ;; Tracked objects:
  1864 ;;		On entry : 0/0
  1865 ;;		On exit  : 0/0
  1866 ;;		Unchanged: 0/0
  1867 ;; Data sizes:     COMRAM   BANK0   BANK1   BANK2   BANK3   BANK4   BANK5   BANK6   BANK7   BANK8   BANK9  BANK10  BANK1
      +1  BANK12  BANK13  BANK14  BANK15
  1868 ;;      Params:         0       0       0       0       0       0       0       0       0       0       0       0       
      +0       0       0       0       0
  1869 ;;      Locals:         2       0       0       0       0       0       0       0       0       0       0       0       
      +0       0       0       0       0
  1870 ;;      Temps:          1       0       0       0       0       0       0       0       0       0       0       0       
      +0       0       0       0       0
  1871 ;;      Totals:         3       0       0       0       0       0       0       0       0       0       0       0       
      +0       0       0       0       0
  1872 ;;Total ram usage:        3 bytes
  1873 ;; Hardware stack levels used: 1
  1874 ;; Hardware stack levels required when called: 2
  1875 ;; This function calls:
  1876 ;;		_keypad_get_value
  1877 ;; This function is called by:
  1878 ;;		_main
  1879 ;; This function uses a non-reentrant model
  1880 ;;
  1881                           
  1882                           	psect	text10
  1883   001BD4                     __ptext10:
  1884                           	callstack 0
  1885   001BD4                     _keypad_read_value:
  1886                           	callstack 28
  1887   001BD4                     
  1888                           ;application.c: 90:     uint8 current_value;;application.c: 92:     ret = keypad_get_val
      +                          ue(&keypad, &current_value);
  1889   001BD4  0E25               	movlw	low _keypad
  1890   001BD6  6E3F               	movwf	keypad_get_value@keypad^0,c
  1891   001BD8  0E00               	movlw	high _keypad
  1892   001BDA  6E40               	movwf	(keypad_get_value@keypad+1)^0,c
  1893   001BDC  0E4A               	movlw	low keypad_read_value@current_value
  1894   001BDE  6E41               	movwf	keypad_get_value@value^0,c
  1895   001BE0  0E00               	movlw	high keypad_read_value@current_value
  1896   001BE2  6E42               	movwf	(keypad_get_value@value+1)^0,c
  1897   001BE4  EC21  F00B         	call	_keypad_get_value	;wreg free
  1898   001BE8  6E24               	movwf	_ret^0,c
  1899   001BEA                     
  1900                           ;application.c: 93:     _delay((unsigned long)((150)*(4000000/4000.0)));
  1901   001BEA  0EC3               	movlw	195
  1902   001BEC  6E49               	movwf	??_keypad_read_value^0,c
  1903   001BEE  0ECD               	movlw	205
  1904   001BF0                     u1167:
  1905   001BF0  2EE8               	decfsz	wreg,f,c
  1906   001BF2  D7FE               	bra	u1167
  1907   001BF4  2E49               	decfsz	??_keypad_read_value^0,f,c
  1908   001BF6  D7FC               	bra	u1167
  1909   001BF8  F000               	nop	
  1910   001BFA                     
  1911                           ;application.c: 94:     if('\0' == current_value){
  1912   001BFA  504A               	movf	keypad_read_value@current_value^0,w,c
  1913   001BFC  A4D8               	btfss	status,2,c
  1914   001BFE  EF03  F00E         	goto	u1051
  1915   001C02  EF05  F00E         	goto	u1050
  1916   001C06                     u1051:
  1917   001C06  EF08  F00E         	goto	l1965
  1918   001C0A                     u1050:
  1919   001C0A                     l1961:
  1920                           
  1921                           ;application.c: 95:         return 0;
  1922   001C0A  0E00               	movlw	0
  1923   001C0C  EF1D  F00E         	goto	l292
  1924   001C10                     l1965:
  1925                           
  1926                           ;application.c: 97:     uint8 new_value;;application.c: 98:     ret = keypad_get_value(&
      +                          keypad, &new_value);
  1927   001C10  0E25               	movlw	low _keypad
  1928   001C12  6E3F               	movwf	keypad_get_value@keypad^0,c
  1929   001C14  0E00               	movlw	high _keypad
  1930   001C16  6E40               	movwf	(keypad_get_value@keypad+1)^0,c
  1931   001C18  0E4B               	movlw	low keypad_read_value@new_value
  1932   001C1A  6E41               	movwf	keypad_get_value@value^0,c
  1933   001C1C  0E00               	movlw	high keypad_read_value@new_value
  1934   001C1E  6E42               	movwf	(keypad_get_value@value+1)^0,c
  1935   001C20  EC21  F00B         	call	_keypad_get_value	;wreg free
  1936   001C24  6E24               	movwf	_ret^0,c
  1937   001C26                     
  1938                           ;application.c: 100:     if (current_value == new_value){
  1939   001C26  504B               	movf	keypad_read_value@new_value^0,w,c
  1940   001C28  184A               	xorwf	keypad_read_value@current_value^0,w,c
  1941   001C2A  A4D8               	btfss	status,2,c
  1942   001C2C  EF1A  F00E         	goto	u1061
  1943   001C30  EF1C  F00E         	goto	u1060
  1944   001C34                     u1061:
  1945   001C34  EF05  F00E         	goto	l1961
  1946   001C38                     u1060:
  1947   001C38                     
  1948                           ;application.c: 101:         return new_value;
  1949   001C38  504B               	movf	keypad_read_value@new_value^0,w,c
  1950   001C3A                     l292:
  1951   001C3A  0012               	return		;funcret
  1952   001C3C                     __end_of_keypad_read_value:
  1953                           	callstack 0
  1954                           
  1955 ;; *************** function _keypad_get_value *****************
  1956 ;; Defined at:
  1957 ;;		line 46 in file "ECU_Layer/Keypad/ecu_keypad.c"
  1958 ;; Parameters:    Size  Location     Type
  1959 ;;  keypad          2   10[COMRAM] PTR const struct .
  1960 ;;		 -> keypad(7), 
  1961 ;;  value           2   12[COMRAM] PTR unsigned char 
  1962 ;;		 -> keypad_read_value@new_value(1), keypad_read_value@current_value(1), 
  1963 ;; Auto vars:     Size  Location     Type
  1964 ;;  col             1   18[COMRAM] unsigned char 
  1965 ;;  rows            1   19[COMRAM] unsigned char 
  1966 ;;  logic           1   17[COMRAM] enum E2965
  1967 ;;  ret             1   16[COMRAM] unsigned char 
  1968 ;; Return value:  Size  Location     Type
  1969 ;;                  1    wreg      unsigned char 
  1970 ;; Registers used:
  1971 ;;		wreg, fsr2l, fsr2h, status,2, status,0, tblptrl, tblptrh, tblptru, prodl, prodh, cstack
  1972 ;; Tracked objects:
  1973 ;;		On entry : 0/0
  1974 ;;		On exit  : 0/0
  1975 ;;		Unchanged: 0/0
  1976 ;; Data sizes:     COMRAM   BANK0   BANK1   BANK2   BANK3   BANK4   BANK5   BANK6   BANK7   BANK8   BANK9  BANK10  BANK1
      +1  BANK12  BANK13  BANK14  BANK15
  1977 ;;      Params:         4       0       0       0       0       0       0       0       0       0       0       0       
      +0       0       0       0       0
  1978 ;;      Locals:         4       0       0       0       0       0       0       0       0       0       0       0       
      +0       0       0       0       0
  1979 ;;      Temps:          2       0       0       0       0       0       0       0       0       0       0       0       
      +0       0       0       0       0
  1980 ;;      Totals:        10       0       0       0       0       0       0       0       0       0       0       0       
      +0       0       0       0       0
  1981 ;;Total ram usage:       10 bytes
  1982 ;; Hardware stack levels used: 1
  1983 ;; Hardware stack levels required when called: 1
  1984 ;; This function calls:
  1985 ;;		_gpio_pin_read_logic
  1986 ;;		_gpio_pin_write_logic
  1987 ;; This function is called by:
  1988 ;;		_keypad_read_value
  1989 ;; This function uses a non-reentrant model
  1990 ;;
  1991                           
  1992                           	psect	text11
  1993   001642                     __ptext11:
  1994                           	callstack 0
  1995   001642                     _keypad_get_value:
  1996                           	callstack 28
  1997   001642                     
  1998                           ;ECU_Layer/Keypad/ecu_keypad.c: 47:     Std_ReturnType ret = (Std_ReturnType)0x00;
  1999   001642  0E00               	movlw	0
  2000   001644  6E45               	movwf	keypad_get_value@ret^0,c
  2001   001646                     
  2002                           ;ECU_Layer/Keypad/ecu_keypad.c: 48:     if(((void*)0) != keypad && ((void*)0) != value){
  2003   001646  503F               	movf	keypad_get_value@keypad^0,w,c
  2004   001648  1040               	iorwf	(keypad_get_value@keypad+1)^0,w,c
  2005   00164A  B4D8               	btfsc	status,2,c
  2006   00164C  EF2A  F00B         	goto	u871
  2007   001650  EF2C  F00B         	goto	u870
  2008   001654                     u871:
  2009   001654  EF91  F00B         	goto	l1807
  2010   001658                     u870:
  2011   001658  5041               	movf	keypad_get_value@value^0,w,c
  2012   00165A  1042               	iorwf	(keypad_get_value@value+1)^0,w,c
  2013   00165C  B4D8               	btfsc	status,2,c
  2014   00165E  EF33  F00B         	goto	u881
  2015   001662  EF35  F00B         	goto	u880
  2016   001666                     u881:
  2017   001666  EF91  F00B         	goto	l1807
  2018   00166A                     u880:
  2019   00166A                     
  2020                           ;ECU_Layer/Keypad/ecu_keypad.c: 50:         logic_t logic;;ECU_Layer/Keypad/ecu_keypad.c
      +                          : 51:         for(uint8 rows = 0 ; rows < 4 ; rows++){
  2021   00166A  0E00               	movlw	0
  2022   00166C  6E48               	movwf	keypad_get_value@rows^0,c
  2023   00166E                     l1783:
  2024   00166E  5048               	movf	keypad_get_value@rows^0,w,c
  2025   001670  243F               	addwf	keypad_get_value@keypad^0,w,c
  2026   001672  6E35               	movwf	gpio_pin_write_logic@_pin_config^0,c
  2027   001674  0E00               	movlw	0
  2028   001676  2040               	addwfc	(keypad_get_value@keypad+1)^0,w,c
  2029   001678  6E36               	movwf	(gpio_pin_write_logic@_pin_config+1)^0,c
  2030   00167A  0E01               	movlw	1
  2031   00167C  6E37               	movwf	gpio_pin_write_logic@logic^0,c
  2032   00167E  ECFB  F009         	call	_gpio_pin_write_logic	;wreg free
  2033   001682                     
  2034                           ;ECU_Layer/Keypad/ecu_keypad.c: 53:             for(uint8 col = 0 ; col < 3 ; col++){
  2035   001682  0E00               	movlw	0
  2036   001684  6E47               	movwf	keypad_get_value@col^0,c
  2037   001686                     l1791:
  2038   001686  5047               	movf	keypad_get_value@col^0,w,c
  2039   001688  243F               	addwf	keypad_get_value@keypad^0,w,c
  2040   00168A  6E43               	movwf	??_keypad_get_value^0,c
  2041   00168C  0E00               	movlw	0
  2042   00168E  2040               	addwfc	(keypad_get_value@keypad+1)^0,w,c
  2043   001690  6E44               	movwf	(??_keypad_get_value+1)^0,c
  2044   001692  0E04               	movlw	4
  2045   001694  2443               	addwf	??_keypad_get_value^0,w,c
  2046   001696  6E35               	movwf	gpio_pin_read_logic@_pin_config^0,c
  2047   001698  0E00               	movlw	0
  2048   00169A  2044               	addwfc	(??_keypad_get_value+1)^0,w,c
  2049   00169C  6E36               	movwf	(gpio_pin_read_logic@_pin_config+1)^0,c
  2050   00169E  0E46               	movlw	low keypad_get_value@logic
  2051   0016A0  6E37               	movwf	gpio_pin_read_logic@logic^0,c
  2052   0016A2  0E00               	movlw	high keypad_get_value@logic
  2053   0016A4  6E38               	movwf	(gpio_pin_read_logic@logic+1)^0,c
  2054   0016A6  EC93  F00B         	call	_gpio_pin_read_logic	;wreg free
  2055   0016AA                     
  2056                           ;ECU_Layer/Keypad/ecu_keypad.c: 55:                 if(GPIO_HIGH == logic){
  2057   0016AA  0446               	decf	keypad_get_value@logic^0,w,c
  2058   0016AC  A4D8               	btfss	status,2,c
  2059   0016AE  EF5B  F00B         	goto	u891
  2060   0016B2  EF5D  F00B         	goto	u890
  2061   0016B6                     u891:
  2062   0016B6  EF74  F00B         	goto	l1797
  2063   0016BA                     u890:
  2064   0016BA                     
  2065                           ;ECU_Layer/Keypad/ecu_keypad.c: 56:                     *value = keypad_matrix[rows][col
      +                          ];
  2066   0016BA  5048               	movf	keypad_get_value@rows^0,w,c
  2067   0016BC  0D03               	mullw	3
  2068   0016BE  0E01               	movlw	low _keypad_matrix
  2069   0016C0  24F3               	addwf	243,w,c
  2070   0016C2  6E43               	movwf	??_keypad_get_value^0,c
  2071   0016C4  0E10               	movlw	high _keypad_matrix
  2072   0016C6  20F4               	addwfc	prodh,w,c
  2073   0016C8  6E44               	movwf	(??_keypad_get_value+1)^0,c
  2074   0016CA  5047               	movf	keypad_get_value@col^0,w,c
  2075   0016CC  2643               	addwf	??_keypad_get_value^0,f,c
  2076   0016CE  0E00               	movlw	0
  2077   0016D0  2244               	addwfc	(??_keypad_get_value+1)^0,f,c
  2078   0016D2  C043  FFF6         	movff	??_keypad_get_value,tblptrl
  2079   0016D6  C044  FFF7         	movff	??_keypad_get_value+1,tblptrh
  2080   0016DA                     	if	0	;tblptru may be non-zero
  2081   0016DA                     	endif
  2082   0016DA                     	if	0	;tblptru may be non-zero
  2083   0016DA                     	endif
  2084   0016DA  C041  FFD9         	movff	keypad_get_value@value,fsr2l
  2085   0016DE  C042  FFDA         	movff	keypad_get_value@value+1,fsr2h
  2086   0016E2  0008               	tblrd		*
  2087   0016E4  CFF5 FFDF          	movff	tablat,indf2
  2088   0016E8                     l1797:
  2089                           
  2090                           ;ECU_Layer/Keypad/ecu_keypad.c: 58:             }
  2091   0016E8  2A47               	incf	keypad_get_value@col^0,f,c
  2092   0016EA  0E02               	movlw	2
  2093   0016EC  6447               	cpfsgt	keypad_get_value@col^0,c
  2094   0016EE  EF7B  F00B         	goto	u901
  2095   0016F2  EF7D  F00B         	goto	u900
  2096   0016F6                     u901:
  2097   0016F6  EF43  F00B         	goto	l1791
  2098   0016FA                     u900:
  2099   0016FA                     
  2100                           ;ECU_Layer/Keypad/ecu_keypad.c: 59:             ret = gpio_pin_write_logic(&(keypad->key
      +                          pad_rows_pins[rows]), GPIO_LOW);
  2101   0016FA  5048               	movf	keypad_get_value@rows^0,w,c
  2102   0016FC  243F               	addwf	keypad_get_value@keypad^0,w,c
  2103   0016FE  6E35               	movwf	gpio_pin_write_logic@_pin_config^0,c
  2104   001700  0E00               	movlw	0
  2105   001702  2040               	addwfc	(keypad_get_value@keypad+1)^0,w,c
  2106   001704  6E36               	movwf	(gpio_pin_write_logic@_pin_config+1)^0,c
  2107   001706  0E00               	movlw	0
  2108   001708  6E37               	movwf	gpio_pin_write_logic@logic^0,c
  2109   00170A  ECFB  F009         	call	_gpio_pin_write_logic	;wreg free
  2110   00170E  6E45               	movwf	keypad_get_value@ret^0,c
  2111   001710                     
  2112                           ;ECU_Layer/Keypad/ecu_keypad.c: 60:         }
  2113   001710  2A48               	incf	keypad_get_value@rows^0,f,c
  2114   001712  0E03               	movlw	3
  2115   001714  6448               	cpfsgt	keypad_get_value@rows^0,c
  2116   001716  EF8F  F00B         	goto	u911
  2117   00171A  EF91  F00B         	goto	u910
  2118   00171E                     u911:
  2119   00171E  EF37  F00B         	goto	l1783
  2120   001722                     u910:
  2121   001722                     l1807:
  2122                           
  2123                           ;ECU_Layer/Keypad/ecu_keypad.c: 62:     return ret;
  2124   001722  5045               	movf	keypad_get_value@ret^0,w,c
  2125   001724  0012               	return		;funcret
  2126   001726                     __end_of_keypad_get_value:
  2127                           	callstack 0
  2128                           
  2129 ;; *************** function _gpio_pin_read_logic *****************
  2130 ;; Defined at:
  2131 ;;		line 75 in file "MCAL_Layer/GPIO/hal_gpio.c"
  2132 ;; Parameters:    Size  Location     Type
  2133 ;;  _pin_config     2    0[COMRAM] PTR const struct .
  2134 ;;		 -> keypad.keypad_coloumns_pins(3), keypad(7), 
  2135 ;;  logic           2    2[COMRAM] PTR enum E2965
  2136 ;;		 -> keypad_get_value@logic(1), 
  2137 ;; Auto vars:     Size  Location     Type
  2138 ;;  ret             1    9[COMRAM] unsigned char 
  2139 ;; Return value:  Size  Location     Type
  2140 ;;                  1    wreg      unsigned char 
  2141 ;; Registers used:
  2142 ;;		wreg, fsr2l, fsr2h, status,2, status,0, prodl, prodh
  2143 ;; Tracked objects:
  2144 ;;		On entry : 0/0
  2145 ;;		On exit  : 0/0
  2146 ;;		Unchanged: 0/0
  2147 ;; Data sizes:     COMRAM   BANK0   BANK1   BANK2   BANK3   BANK4   BANK5   BANK6   BANK7   BANK8   BANK9  BANK10  BANK1
      +1  BANK12  BANK13  BANK14  BANK15
  2148 ;;      Params:         4       0       0       0       0       0       0       0       0       0       0       0       
      +0       0       0       0       0
  2149 ;;      Locals:         1       0       0       0       0       0       0       0       0       0       0       0       
      +0       0       0       0       0
  2150 ;;      Temps:          5       0       0       0       0       0       0       0       0       0       0       0       
      +0       0       0       0       0
  2151 ;;      Totals:        10       0       0       0       0       0       0       0       0       0       0       0       
      +0       0       0       0       0
  2152 ;;Total ram usage:       10 bytes
  2153 ;; Hardware stack levels used: 1
  2154 ;; This function calls:
  2155 ;;		Nothing
  2156 ;; This function is called by:
  2157 ;;		_keypad_get_value
  2158 ;; This function uses a non-reentrant model
  2159 ;;
  2160                           
  2161                           	psect	text12
  2162   001726                     __ptext12:
  2163                           	callstack 0
  2164   001726                     _gpio_pin_read_logic:
  2165                           	callstack 28
  2166   001726                     
  2167                           ;MCAL_Layer/GPIO/hal_gpio.c: 76:     Std_ReturnType ret = (Std_ReturnType)0x01;
  2168   001726  0E01               	movlw	1
  2169   001728  6E3E               	movwf	gpio_pin_read_logic@ret^0,c
  2170   00172A                     
  2171                           ;MCAL_Layer/GPIO/hal_gpio.c: 77:     if(_pin_config == ((void*)0) || logic == ((void*)0)
      +                           || _pin_config->pin > 8 -1){
  2172   00172A  5035               	movf	gpio_pin_read_logic@_pin_config^0,w,c
  2173   00172C  1036               	iorwf	(gpio_pin_read_logic@_pin_config+1)^0,w,c
  2174   00172E  B4D8               	btfsc	status,2,c
  2175   001730  EF9C  F00B         	goto	u781
  2176   001734  EF9E  F00B         	goto	u780
  2177   001738                     u781:
  2178   001738  EFB8  F00B         	goto	l1679
  2179   00173C                     u780:
  2180   00173C  5037               	movf	gpio_pin_read_logic@logic^0,w,c
  2181   00173E  1038               	iorwf	(gpio_pin_read_logic@logic+1)^0,w,c
  2182   001740  B4D8               	btfsc	status,2,c
  2183   001742  EFA5  F00B         	goto	u791
  2184   001746  EFA7  F00B         	goto	u790
  2185   00174A                     u791:
  2186   00174A  EFB8  F00B         	goto	l1679
  2187   00174E                     u790:
  2188   00174E  C035  FFD9         	movff	gpio_pin_read_logic@_pin_config,fsr2l
  2189   001752  C036  FFDA         	movff	gpio_pin_read_logic@_pin_config+1,fsr2h
  2190   001756  30DF               	rrcf	223,w,c
  2191   001758  32E8               	rrcf	wreg,f,c
  2192   00175A  32E8               	rrcf	wreg,f,c
  2193   00175C  0B07               	andlw	7
  2194   00175E  6E39               	movwf	??_gpio_pin_read_logic^0,c
  2195   001760  0E07               	movlw	7
  2196   001762  6439               	cpfsgt	??_gpio_pin_read_logic^0,c
  2197   001764  EFB6  F00B         	goto	u801
  2198   001768  EFB8  F00B         	goto	u800
  2199   00176C                     u801:
  2200   00176C  EFBC  F00B         	goto	l1681
  2201   001770                     u800:
  2202   001770                     l1679:
  2203                           
  2204                           ;MCAL_Layer/GPIO/hal_gpio.c: 78:         ret = (Std_ReturnType)0x00;
  2205   001770  0E00               	movlw	0
  2206   001772  6E3E               	movwf	gpio_pin_read_logic@ret^0,c
  2207                           
  2208                           ;MCAL_Layer/GPIO/hal_gpio.c: 79:     }
  2209   001774  EFED  F00B         	goto	l1683
  2210   001778                     l1681:
  2211                           
  2212                           ;MCAL_Layer/GPIO/hal_gpio.c: 81:         *logic = ((*port_registers[_pin_config->port] >
      +                          > _pin_config->pin) & (uint8) 1);
  2213   001778  C035  FFD9         	movff	gpio_pin_read_logic@_pin_config,fsr2l
  2214   00177C  C036  FFDA         	movff	gpio_pin_read_logic@_pin_config+1,fsr2h
  2215   001780  30DF               	rrcf	223,w,c
  2216   001782  32E8               	rrcf	wreg,f,c
  2217   001784  32E8               	rrcf	wreg,f,c
  2218   001786  0B07               	andlw	7
  2219   001788  6E39               	movwf	??_gpio_pin_read_logic^0,c
  2220   00178A  C035  FFD9         	movff	gpio_pin_read_logic@_pin_config,fsr2l
  2221   00178E  C036  FFDA         	movff	gpio_pin_read_logic@_pin_config+1,fsr2h
  2222   001792  50DF               	movf	223,w,c
  2223   001794  0B07               	andlw	7
  2224   001796  6E3A               	movwf	(??_gpio_pin_read_logic+1)^0,c
  2225   001798  503A               	movf	(??_gpio_pin_read_logic+1)^0,w,c
  2226   00179A  0D02               	mullw	2
  2227   00179C  0E0B               	movlw	low _port_registers
  2228   00179E  24F3               	addwf	243,w,c
  2229   0017A0  6ED9               	movwf	fsr2l,c
  2230   0017A2  0E00               	movlw	high _port_registers
  2231   0017A4  20F4               	addwfc	prodh,w,c
  2232   0017A6  6EDA               	movwf	fsr2h,c
  2233   0017A8  CFDE F03B          	movff	postinc2,??_gpio_pin_read_logic+2
  2234   0017AC  CFDD F03C          	movff	postdec2,??_gpio_pin_read_logic+3
  2235   0017B0  C03B  FFD9         	movff	??_gpio_pin_read_logic+2,fsr2l
  2236   0017B4  C03C  FFDA         	movff	??_gpio_pin_read_logic+3,fsr2h
  2237   0017B8  50DF               	movf	indf2,w,c
  2238   0017BA  6E3D               	movwf	(??_gpio_pin_read_logic+4)^0,c
  2239   0017BC  2A39               	incf	??_gpio_pin_read_logic^0,f,c
  2240   0017BE  EFE3  F00B         	goto	u814
  2241   0017C2                     u815:
  2242   0017C2  90D8               	bcf	status,0,c
  2243   0017C4  323D               	rrcf	(??_gpio_pin_read_logic+4)^0,f,c
  2244   0017C6                     u814:
  2245   0017C6  2E39               	decfsz	??_gpio_pin_read_logic^0,f,c
  2246   0017C8  EFE1  F00B         	goto	u815
  2247   0017CC  503D               	movf	(??_gpio_pin_read_logic+4)^0,w,c
  2248   0017CE  0B01               	andlw	1
  2249   0017D0  C037  FFD9         	movff	gpio_pin_read_logic@logic,fsr2l
  2250   0017D4  C038  FFDA         	movff	gpio_pin_read_logic@logic+1,fsr2h
  2251   0017D8  6EDF               	movwf	indf2,c
  2252   0017DA                     l1683:
  2253                           
  2254                           ;MCAL_Layer/GPIO/hal_gpio.c: 83:     return ret;
  2255   0017DA  503E               	movf	gpio_pin_read_logic@ret^0,w,c
  2256   0017DC  0012               	return		;funcret
  2257   0017DE                     __end_of_gpio_pin_read_logic:
  2258                           	callstack 0
  2259                           
  2260 ;; *************** function _application_intialize *****************
  2261 ;; Defined at:
  2262 ;;		line 83 in file "application.c"
  2263 ;; Parameters:    Size  Location     Type
  2264 ;;		None
  2265 ;; Auto vars:     Size  Location     Type
  2266 ;;		None
  2267 ;; Return value:  Size  Location     Type
  2268 ;;                  1    wreg      void 
  2269 ;; Registers used:
  2270 ;;		wreg, fsr2l, fsr2h, status,2, status,0, prodl, prodh, cstack
  2271 ;; Tracked objects:
  2272 ;;		On entry : 0/0
  2273 ;;		On exit  : 0/0
  2274 ;;		Unchanged: 0/0
  2275 ;; Data sizes:     COMRAM   BANK0   BANK1   BANK2   BANK3   BANK4   BANK5   BANK6   BANK7   BANK8   BANK9  BANK10  BANK1
      +1  BANK12  BANK13  BANK14  BANK15
  2276 ;;      Params:         0       0       0       0       0       0       0       0       0       0       0       0       
      +0       0       0       0       0
  2277 ;;      Locals:         0       0       0       0       0       0       0       0       0       0       0       0       
      +0       0       0       0       0
  2278 ;;      Temps:          0       0       0       0       0       0       0       0       0       0       0       0       
      +0       0       0       0       0
  2279 ;;      Totals:         0       0       0       0       0       0       0       0       0       0       0       0       
      +0       0       0       0       0
  2280 ;;Total ram usage:        0 bytes
  2281 ;; Hardware stack levels used: 1
  2282 ;; Hardware stack levels required when called: 5
  2283 ;; This function calls:
  2284 ;;		_ecu_layer_intialize
  2285 ;; This function is called by:
  2286 ;;		_main
  2287 ;; This function uses a non-reentrant model
  2288 ;;
  2289                           
  2290                           	psect	text13
  2291   001F92                     __ptext13:
  2292                           	callstack 0
  2293   001F92                     _application_intialize:
  2294                           	callstack 25
  2295   001F92                     
  2296                           ;application.c: 84:     ret = ecu_layer_intialize();
  2297   001F92  ECF7  F00E         	call	_ecu_layer_intialize	;wreg free
  2298   001F96  6E24               	movwf	_ret^0,c
  2299   001F98  0012               	return		;funcret
  2300   001F9A                     __end_of_application_intialize:
  2301                           	callstack 0
  2302                           
  2303 ;; *************** function _ecu_layer_intialize *****************
  2304 ;; Defined at:
  2305 ;;		line 85 in file "ECU_Layer/ecu_layer_intialize.c"
  2306 ;; Parameters:    Size  Location     Type
  2307 ;;		None
  2308 ;; Auto vars:     Size  Location     Type
  2309 ;;  ret             1   29[COMRAM] unsigned char 
  2310 ;; Return value:  Size  Location     Type
  2311 ;;                  1    wreg      unsigned char 
  2312 ;; Registers used:
  2313 ;;		wreg, fsr2l, fsr2h, status,2, status,0, prodl, prodh, cstack
  2314 ;; Tracked objects:
  2315 ;;		On entry : 0/0
  2316 ;;		On exit  : 0/0
  2317 ;;		Unchanged: 0/0
  2318 ;; Data sizes:     COMRAM   BANK0   BANK1   BANK2   BANK3   BANK4   BANK5   BANK6   BANK7   BANK8   BANK9  BANK10  BANK1
      +1  BANK12  BANK13  BANK14  BANK15
  2319 ;;      Params:         0       0       0       0       0       0       0       0       0       0       0       0       
      +0       0       0       0       0
  2320 ;;      Locals:         1       0       0       0       0       0       0       0       0       0       0       0       
      +0       0       0       0       0
  2321 ;;      Temps:          0       0       0       0       0       0       0       0       0       0       0       0       
      +0       0       0       0       0
  2322 ;;      Totals:         1       0       0       0       0       0       0       0       0       0       0       0       
      +0       0       0       0       0
  2323 ;;Total ram usage:        1 bytes
  2324 ;; Hardware stack levels used: 1
  2325 ;; Hardware stack levels required when called: 4
  2326 ;; This function calls:
  2327 ;;		_keypad_intialize
  2328 ;;		_lcd_4bit_intialize
  2329 ;;		_led_intialiaze
  2330 ;;		_motor_intialize
  2331 ;; This function is called by:
  2332 ;;		_application_intialize
  2333 ;; This function uses a non-reentrant model
  2334 ;;
  2335                           
  2336                           	psect	text14
  2337   001DEE                     __ptext14:
  2338                           	callstack 0
  2339   001DEE                     _ecu_layer_intialize:
  2340                           	callstack 25
  2341   001DEE  0E64               	movlw	low _led_locked
  2342   001DF0  6E43               	movwf	led_intialiaze@led^0,c
  2343   001DF2  0E00               	movlw	high _led_locked
  2344   001DF4  6E44               	movwf	(led_intialiaze@led+1)^0,c
  2345   001DF6  EC0A  F00D         	call	_led_intialiaze	;wreg free
  2346   001DFA  0E34               	movlw	low _led_opened
  2347   001DFC  6E43               	movwf	led_intialiaze@led^0,c
  2348   001DFE  0E00               	movlw	high _led_opened
  2349   001E00  6E44               	movwf	(led_intialiaze@led+1)^0,c
  2350   001E02  EC0A  F00D         	call	_led_intialiaze	;wreg free
  2351   001E06  0E32               	movlw	low _motor
  2352   001E08  6E43               	movwf	motor_intialize@motor^0,c
  2353   001E0A  0E00               	movlw	high _motor
  2354   001E0C  6E44               	movwf	(motor_intialize@motor+1)^0,c
  2355   001E0E  EC78  F00F         	call	_motor_intialize	;wreg free
  2356   001E12  0E25               	movlw	low _keypad
  2357   001E14  6E43               	movwf	keypad_intialize@keypad^0,c
  2358   001E16  0E00               	movlw	high _keypad
  2359   001E18  6E44               	movwf	(keypad_intialize@keypad+1)^0,c
  2360   001E1A  EC3C  F00C         	call	_keypad_intialize	;wreg free
  2361   001E1E                     
  2362                           ;ECU_Layer/ecu_layer_intialize.c: 96:     ret = lcd_4bit_intialize(&lcd);
  2363   001E1E  0E2C               	movlw	low _lcd
  2364   001E20  6E4C               	movwf	lcd_4bit_intialize@lcd^0,c
  2365   001E22  0E00               	movlw	high _lcd
  2366   001E24  6E4D               	movwf	(lcd_4bit_intialize@lcd+1)^0,c
  2367   001E26  EC91  F00A         	call	_lcd_4bit_intialize	;wreg free
  2368   001E2A  6E52               	movwf	ecu_layer_intialize@ret^0,c
  2369   001E2C                     
  2370                           ;ECU_Layer/ecu_layer_intialize.c: 98:     return ret;
  2371   001E2C  5052               	movf	ecu_layer_intialize@ret^0,w,c
  2372   001E2E  0012               	return		;funcret
  2373   001E30                     __end_of_ecu_layer_intialize:
  2374                           	callstack 0
  2375                           
  2376 ;; *************** function _motor_intialize *****************
  2377 ;; Defined at:
  2378 ;;		line 17 in file "ECU_Layer/DC_Motor/ecu_dc_motor.c"
  2379 ;; Parameters:    Size  Location     Type
  2380 ;;  motor           2   14[COMRAM] PTR const struct .
  2381 ;;		 -> motor(2), 
  2382 ;; Auto vars:     Size  Location     Type
  2383 ;;  ret             1   16[COMRAM] unsigned char 
  2384 ;; Return value:  Size  Location     Type
  2385 ;;                  1    wreg      unsigned char 
  2386 ;; Registers used:
  2387 ;;		wreg, fsr2l, fsr2h, status,2, status,0, prodl, prodh, cstack
  2388 ;; Tracked objects:
  2389 ;;		On entry : 0/0
  2390 ;;		On exit  : 0/0
  2391 ;;		Unchanged: 0/0
  2392 ;; Data sizes:     COMRAM   BANK0   BANK1   BANK2   BANK3   BANK4   BANK5   BANK6   BANK7   BANK8   BANK9  BANK10  BANK1
      +1  BANK12  BANK13  BANK14  BANK15
  2393 ;;      Params:         2       0       0       0       0       0       0       0       0       0       0       0       
      +0       0       0       0       0
  2394 ;;      Locals:         1       0       0       0       0       0       0       0       0       0       0       0       
      +0       0       0       0       0
  2395 ;;      Temps:          0       0       0       0       0       0       0       0       0       0       0       0       
      +0       0       0       0       0
  2396 ;;      Totals:         3       0       0       0       0       0       0       0       0       0       0       0       
      +0       0       0       0       0
  2397 ;;Total ram usage:        3 bytes
  2398 ;; Hardware stack levels used: 1
  2399 ;; Hardware stack levels required when called: 2
  2400 ;; This function calls:
  2401 ;;		_gpio_pin_intialize
  2402 ;; This function is called by:
  2403 ;;		_ecu_layer_intialize
  2404 ;; This function uses a non-reentrant model
  2405 ;;
  2406                           
  2407                           	psect	text15
  2408   001EF0                     __ptext15:
  2409                           	callstack 0
  2410   001EF0                     _motor_intialize:
  2411                           	callstack 26
  2412   001EF0                     
  2413                           ;ECU_Layer/DC_Motor/ecu_dc_motor.c: 18:     Std_ReturnType ret = (Std_ReturnType)0x00;
  2414   001EF0  0E00               	movlw	0
  2415   001EF2  6E45               	movwf	motor_intialize@ret^0,c
  2416   001EF4                     
  2417                           ;ECU_Layer/DC_Motor/ecu_dc_motor.c: 19:     if(((void*)0) != motor){
  2418   001EF4  5043               	movf	motor_intialize@motor^0,w,c
  2419   001EF6  1044               	iorwf	(motor_intialize@motor+1)^0,w,c
  2420   001EF8  B4D8               	btfsc	status,2,c
  2421   001EFA  EF81  F00F         	goto	u741
  2422   001EFE  EF83  F00F         	goto	u740
  2423   001F02                     u741:
  2424   001F02  EF92  F00F         	goto	l7
  2425   001F06                     u740:
  2426   001F06  C043  F03F         	movff	motor_intialize@motor,gpio_pin_intialize@_pin_config
  2427   001F0A  C044  F040         	movff	motor_intialize@motor+1,gpio_pin_intialize@_pin_config+1
  2428   001F0E  EC7F  F00D         	call	_gpio_pin_intialize	;wreg free
  2429   001F12                     
  2430                           ;ECU_Layer/DC_Motor/ecu_dc_motor.c: 22:         ret = gpio_pin_intialize(&motor->motor_p
      +                          in[0x01]);
  2431   001F12  0E01               	movlw	1
  2432   001F14  2443               	addwf	motor_intialize@motor^0,w,c
  2433   001F16  6E3F               	movwf	gpio_pin_intialize@_pin_config^0,c
  2434   001F18  0E00               	movlw	0
  2435   001F1A  2044               	addwfc	(motor_intialize@motor+1)^0,w,c
  2436   001F1C  6E40               	movwf	(gpio_pin_intialize@_pin_config+1)^0,c
  2437   001F1E  EC7F  F00D         	call	_gpio_pin_intialize	;wreg free
  2438   001F22  6E45               	movwf	motor_intialize@ret^0,c
  2439   001F24                     l7:
  2440                           
  2441                           ;ECU_Layer/DC_Motor/ecu_dc_motor.c: 24:     return ret;
  2442   001F24  5045               	movf	motor_intialize@ret^0,w,c
  2443   001F26  0012               	return		;funcret
  2444   001F28                     __end_of_motor_intialize:
  2445                           	callstack 0
  2446                           
  2447 ;; *************** function _led_intialiaze *****************
  2448 ;; Defined at:
  2449 ;;		line 17 in file "ECU_Layer/LED/ecu_led.c"
  2450 ;; Parameters:    Size  Location     Type
  2451 ;;  led             2   14[COMRAM] PTR const struct .
  2452 ;;		 -> led_opened(1), led_locked(1), 
  2453 ;; Auto vars:     Size  Location     Type
  2454 ;;  pin_config_o    1   18[COMRAM] struct .
  2455 ;;  ret             1   17[COMRAM] unsigned char 
  2456 ;; Return value:  Size  Location     Type
  2457 ;;                  1    wreg      unsigned char 
  2458 ;; Registers used:
  2459 ;;		wreg, fsr2l, fsr2h, status,2, status,0, prodl, prodh, cstack
  2460 ;; Tracked objects:
  2461 ;;		On entry : 0/0
  2462 ;;		On exit  : 0/0
  2463 ;;		Unchanged: 0/0
  2464 ;; Data sizes:     COMRAM   BANK0   BANK1   BANK2   BANK3   BANK4   BANK5   BANK6   BANK7   BANK8   BANK9  BANK10  BANK1
      +1  BANK12  BANK13  BANK14  BANK15
  2465 ;;      Params:         2       0       0       0       0       0       0       0       0       0       0       0       
      +0       0       0       0       0
  2466 ;;      Locals:         2       0       0       0       0       0       0       0       0       0       0       0       
      +0       0       0       0       0
  2467 ;;      Temps:          1       0       0       0       0       0       0       0       0       0       0       0       
      +0       0       0       0       0
  2468 ;;      Totals:         5       0       0       0       0       0       0       0       0       0       0       0       
      +0       0       0       0       0
  2469 ;;Total ram usage:        5 bytes
  2470 ;; Hardware stack levels used: 1
  2471 ;; Hardware stack levels required when called: 2
  2472 ;; This function calls:
  2473 ;;		_gpio_pin_intialize
  2474 ;; This function is called by:
  2475 ;;		_ecu_layer_intialize
  2476 ;; This function uses a non-reentrant model
  2477 ;;
  2478                           
  2479                           	psect	text16
  2480   001A14                     __ptext16:
  2481                           	callstack 0
  2482   001A14                     _led_intialiaze:
  2483                           	callstack 26
  2484   001A14                     
  2485                           ;ECU_Layer/LED/ecu_led.c: 19:     if(led == ((void*)0)){
  2486   001A14  5043               	movf	led_intialiaze@led^0,w,c
  2487   001A16  1044               	iorwf	(led_intialiaze@led+1)^0,w,c
  2488   001A18  A4D8               	btfss	status,2,c
  2489   001A1A  EF11  F00D         	goto	u851
  2490   001A1E  EF13  F00D         	goto	u850
  2491   001A22                     u851:
  2492   001A22  EF17  F00D         	goto	l111
  2493   001A26                     u850:
  2494   001A26                     
  2495                           ;ECU_Layer/LED/ecu_led.c: 20:         ret = (Std_ReturnType)0x00;
  2496   001A26  0E00               	movlw	0
  2497   001A28  6E46               	movwf	led_intialiaze@ret^0,c
  2498                           
  2499                           ;ECU_Layer/LED/ecu_led.c: 21:     }
  2500   001A2A  EF47  F00D         	goto	l1767
  2501   001A2E                     l111:
  2502                           
  2503                           ;ECU_Layer/LED/ecu_led.c: 23:         pin_config_t pin_config_obj = {.port = led->port, 
      +                          .pin = led->pin,
  2504   001A2E  C063  F047         	movff	led_intialiaze@F3025,led_intialiaze@pin_config_obj
  2505   001A32  C043  FFD9         	movff	led_intialiaze@led,fsr2l
  2506   001A36  C044  FFDA         	movff	led_intialiaze@led+1,fsr2h
  2507   001A3A  50DF               	movf	223,w,c
  2508   001A3C  0B07               	andlw	7
  2509   001A3E  6E45               	movwf	??_led_intialiaze^0,c
  2510   001A40  5047               	movf	led_intialiaze@pin_config_obj^0,w,c
  2511   001A42  1845               	xorwf	??_led_intialiaze^0,w,c
  2512   001A44  0BF8               	andlw	-8
  2513   001A46  1845               	xorwf	??_led_intialiaze^0,w,c
  2514   001A48  6E47               	movwf	led_intialiaze@pin_config_obj^0,c
  2515   001A4A  C043  FFD9         	movff	led_intialiaze@led,fsr2l
  2516   001A4E  C044  FFDA         	movff	led_intialiaze@led+1,fsr2h
  2517   001A52  30DF               	rrcf	223,w,c
  2518   001A54  32E8               	rrcf	wreg,f,c
  2519   001A56  32E8               	rrcf	wreg,f,c
  2520   001A58  0B07               	andlw	7
  2521   001A5A  6E45               	movwf	??_led_intialiaze^0,c
  2522   001A5C  4645               	rlncf	??_led_intialiaze^0,f,c
  2523   001A5E  4645               	rlncf	??_led_intialiaze^0,f,c
  2524   001A60  4645               	rlncf	??_led_intialiaze^0,f,c
  2525   001A62  5047               	movf	led_intialiaze@pin_config_obj^0,w,c
  2526   001A64  1845               	xorwf	??_led_intialiaze^0,w,c
  2527   001A66  0BC7               	andlw	-57
  2528   001A68  1845               	xorwf	??_led_intialiaze^0,w,c
  2529   001A6A  6E47               	movwf	led_intialiaze@pin_config_obj^0,c
  2530   001A6C  9C47               	bcf	led_intialiaze@pin_config_obj^0,6,c
  2531   001A6E  C043  FFD9         	movff	led_intialiaze@led,fsr2l
  2532   001A72  C044  FFDA         	movff	led_intialiaze@led+1,fsr2h
  2533   001A76  ACDF               	btfss	indf2,6,c
  2534   001A78  D002               	bra	u865
  2535   001A7A  8E47               	bsf	led_intialiaze@pin_config_obj^0,7,c
  2536   001A7C  D001               	bra	u867
  2537   001A7E                     u865:
  2538   001A7E  9E47               	bcf	led_intialiaze@pin_config_obj^0,7,c
  2539   001A80                     u867:
  2540   001A80                     
  2541                           ;ECU_Layer/LED/ecu_led.c: 25:         ret = gpio_pin_intialize(&pin_config_obj);
  2542   001A80  0E47               	movlw	low led_intialiaze@pin_config_obj
  2543   001A82  6E3F               	movwf	gpio_pin_intialize@_pin_config^0,c
  2544   001A84  0E00               	movlw	high led_intialiaze@pin_config_obj
  2545   001A86  6E40               	movwf	(gpio_pin_intialize@_pin_config+1)^0,c
  2546   001A88  EC7F  F00D         	call	_gpio_pin_intialize	;wreg free
  2547   001A8C  6E46               	movwf	led_intialiaze@ret^0,c
  2548   001A8E                     l1767:
  2549                           
  2550                           ;ECU_Layer/LED/ecu_led.c: 27:     return ret;
  2551   001A8E  5046               	movf	led_intialiaze@ret^0,w,c
  2552   001A90  0012               	return		;funcret
  2553   001A92                     __end_of_led_intialiaze:
  2554                           	callstack 0
  2555                           
  2556 ;; *************** function _lcd_4bit_intialize *****************
  2557 ;; Defined at:
  2558 ;;		line 21 in file "ECU_Layer/LCD/ecu_lcd.c"
  2559 ;; Parameters:    Size  Location     Type
  2560 ;;  lcd             2   23[COMRAM] PTR const struct .
  2561 ;;		 -> lcd(6), 
  2562 ;; Auto vars:     Size  Location     Type
  2563 ;;  pin             1   27[COMRAM] unsigned char 
  2564 ;;  ret             1   28[COMRAM] unsigned char 
  2565 ;; Return value:  Size  Location     Type
  2566 ;;                  1    wreg      unsigned char 
  2567 ;; Registers used:
  2568 ;;		wreg, fsr2l, fsr2h, status,2, status,0, prodl, prodh, cstack
  2569 ;; Tracked objects:
  2570 ;;		On entry : 0/0
  2571 ;;		On exit  : 0/0
  2572 ;;		Unchanged: 0/0
  2573 ;; Data sizes:     COMRAM   BANK0   BANK1   BANK2   BANK3   BANK4   BANK5   BANK6   BANK7   BANK8   BANK9  BANK10  BANK1
      +1  BANK12  BANK13  BANK14  BANK15
  2574 ;;      Params:         2       0       0       0       0       0       0       0       0       0       0       0       
      +0       0       0       0       0
  2575 ;;      Locals:         2       0       0       0       0       0       0       0       0       0       0       0       
      +0       0       0       0       0
  2576 ;;      Temps:          2       0       0       0       0       0       0       0       0       0       0       0       
      +0       0       0       0       0
  2577 ;;      Totals:         6       0       0       0       0       0       0       0       0       0       0       0       
      +0       0       0       0       0
  2578 ;;Total ram usage:        6 bytes
  2579 ;; Hardware stack levels used: 1
  2580 ;; Hardware stack levels required when called: 3
  2581 ;; This function calls:
  2582 ;;		_gpio_pin_intialize
  2583 ;;		_lcd_4bit_send_command
  2584 ;; This function is called by:
  2585 ;;		_ecu_layer_intialize
  2586 ;; This function uses a non-reentrant model
  2587 ;;
  2588                           
  2589                           	psect	text17
  2590   001522                     __ptext17:
  2591                           	callstack 0
  2592   001522                     _lcd_4bit_intialize:
  2593                           	callstack 25
  2594   001522                     
  2595                           ;ECU_Layer/LCD/ecu_lcd.c: 22:     Std_ReturnType ret = (Std_ReturnType)0x00;
  2596   001522  0E00               	movlw	0
  2597   001524  6E51               	movwf	lcd_4bit_intialize@ret^0,c
  2598   001526                     
  2599                           ;ECU_Layer/LCD/ecu_lcd.c: 23:     if(((void*)0) != lcd){
  2600   001526  504C               	movf	lcd_4bit_intialize@lcd^0,w,c
  2601   001528  104D               	iorwf	(lcd_4bit_intialize@lcd+1)^0,w,c
  2602   00152A  B4D8               	btfsc	status,2,c
  2603   00152C  EF9A  F00A         	goto	u821
  2604   001530  EF9C  F00A         	goto	u820
  2605   001534                     u821:
  2606   001534  EF1F  F00B         	goto	l1729
  2607   001538                     u820:
  2608   001538  C04C  F03F         	movff	lcd_4bit_intialize@lcd,gpio_pin_intialize@_pin_config
  2609   00153C  C04D  F040         	movff	lcd_4bit_intialize@lcd+1,gpio_pin_intialize@_pin_config+1
  2610   001540  EC7F  F00D         	call	_gpio_pin_intialize	;wreg free
  2611   001544  0E01               	movlw	1
  2612   001546  244C               	addwf	lcd_4bit_intialize@lcd^0,w,c
  2613   001548  6E3F               	movwf	gpio_pin_intialize@_pin_config^0,c
  2614   00154A  0E00               	movlw	0
  2615   00154C  204D               	addwfc	(lcd_4bit_intialize@lcd+1)^0,w,c
  2616   00154E  6E40               	movwf	(gpio_pin_intialize@_pin_config+1)^0,c
  2617   001550  EC7F  F00D         	call	_gpio_pin_intialize	;wreg free
  2618                           
  2619                           ;ECU_Layer/LCD/ecu_lcd.c: 27:         for(uint8 pin = 0 ; pin < 4 ; pin++){
  2620   001554  0E00               	movlw	0
  2621   001556  6E50               	movwf	lcd_4bit_intialize@pin^0,c
  2622   001558                     l1701:
  2623   001558  5050               	movf	lcd_4bit_intialize@pin^0,w,c
  2624   00155A  244C               	addwf	lcd_4bit_intialize@lcd^0,w,c
  2625   00155C  6E4E               	movwf	??_lcd_4bit_intialize^0,c
  2626   00155E  0E00               	movlw	0
  2627   001560  204D               	addwfc	(lcd_4bit_intialize@lcd+1)^0,w,c
  2628   001562  6E4F               	movwf	(??_lcd_4bit_intialize+1)^0,c
  2629   001564  0E02               	movlw	2
  2630   001566  244E               	addwf	??_lcd_4bit_intialize^0,w,c
  2631   001568  6E3F               	movwf	gpio_pin_intialize@_pin_config^0,c
  2632   00156A  0E00               	movlw	0
  2633   00156C  204F               	addwfc	(??_lcd_4bit_intialize+1)^0,w,c
  2634   00156E  6E40               	movwf	(gpio_pin_intialize@_pin_config+1)^0,c
  2635   001570  EC7F  F00D         	call	_gpio_pin_intialize	;wreg free
  2636   001574                     
  2637                           ;ECU_Layer/LCD/ecu_lcd.c: 29:         }
  2638   001574  2A50               	incf	lcd_4bit_intialize@pin^0,f,c
  2639   001576  0E03               	movlw	3
  2640   001578  6450               	cpfsgt	lcd_4bit_intialize@pin^0,c
  2641   00157A  EFC1  F00A         	goto	u831
  2642   00157E  EFC3  F00A         	goto	u830
  2643   001582                     u831:
  2644   001582  EFAC  F00A         	goto	l1701
  2645   001586                     u830:
  2646   001586                     
  2647                           ;ECU_Layer/LCD/ecu_lcd.c: 30:         _delay((unsigned long)((20)*(4000000/4000.0)));
  2648   001586  0E1A               	movlw	26
  2649   001588  6E4E               	movwf	??_lcd_4bit_intialize^0,c
  2650   00158A  0EF8               	movlw	248
  2651   00158C                     u1177:
  2652   00158C  2EE8               	decfsz	wreg,f,c
  2653   00158E  D7FE               	bra	u1177
  2654   001590  2E4E               	decfsz	??_lcd_4bit_intialize^0,f,c
  2655   001592  D7FC               	bra	u1177
  2656   001594  D000               	nop2	
  2657   001596  C04C  F048         	movff	lcd_4bit_intialize@lcd,lcd_4bit_send_command@lcd
  2658   00159A  C04D  F049         	movff	lcd_4bit_intialize@lcd+1,lcd_4bit_send_command@lcd+1
  2659   00159E  0E38               	movlw	56
  2660   0015A0  6E4A               	movwf	lcd_4bit_send_command@command^0,c
  2661   0015A2  EC51  F00E         	call	_lcd_4bit_send_command	;wreg free
  2662   0015A6                     
  2663                           ;ECU_Layer/LCD/ecu_lcd.c: 32:         _delay((unsigned long)((5)*(4000000/4000.0)));
  2664   0015A6  0E07               	movlw	7
  2665   0015A8  6E4E               	movwf	??_lcd_4bit_intialize^0,c
  2666   0015AA  0E7D               	movlw	125
  2667   0015AC                     u1187:
  2668   0015AC  2EE8               	decfsz	wreg,f,c
  2669   0015AE  D7FE               	bra	u1187
  2670   0015B0  2E4E               	decfsz	??_lcd_4bit_intialize^0,f,c
  2671   0015B2  D7FC               	bra	u1187
  2672   0015B4  F000               	nop	
  2673   0015B6  C04C  F048         	movff	lcd_4bit_intialize@lcd,lcd_4bit_send_command@lcd
  2674   0015BA  C04D  F049         	movff	lcd_4bit_intialize@lcd+1,lcd_4bit_send_command@lcd+1
  2675   0015BE  0E38               	movlw	56
  2676   0015C0  6E4A               	movwf	lcd_4bit_send_command@command^0,c
  2677   0015C2  EC51  F00E         	call	_lcd_4bit_send_command	;wreg free
  2678   0015C6                     
  2679                           ;ECU_Layer/LCD/ecu_lcd.c: 34:         _delay((unsigned long)((150)*(4000000/4000000.0)))
      +                          ;
  2680   0015C6  0E32               	movlw	50
  2681   0015C8                     u1197:
  2682   0015C8  2EE8               	decfsz	wreg,f,c
  2683   0015CA  D7FE               	bra	u1197
  2684   0015CC  C04C  F048         	movff	lcd_4bit_intialize@lcd,lcd_4bit_send_command@lcd
  2685   0015D0  C04D  F049         	movff	lcd_4bit_intialize@lcd+1,lcd_4bit_send_command@lcd+1
  2686   0015D4  0E38               	movlw	56
  2687   0015D6  6E4A               	movwf	lcd_4bit_send_command@command^0,c
  2688   0015D8  EC51  F00E         	call	_lcd_4bit_send_command	;wreg free
  2689   0015DC  C04C  F048         	movff	lcd_4bit_intialize@lcd,lcd_4bit_send_command@lcd
  2690   0015E0  C04D  F049         	movff	lcd_4bit_intialize@lcd+1,lcd_4bit_send_command@lcd+1
  2691   0015E4  0E01               	movlw	1
  2692   0015E6  6E4A               	movwf	lcd_4bit_send_command@command^0,c
  2693   0015E8  EC51  F00E         	call	_lcd_4bit_send_command	;wreg free
  2694   0015EC  C04C  F048         	movff	lcd_4bit_intialize@lcd,lcd_4bit_send_command@lcd
  2695   0015F0  C04D  F049         	movff	lcd_4bit_intialize@lcd+1,lcd_4bit_send_command@lcd+1
  2696   0015F4  0E02               	movlw	2
  2697   0015F6  6E4A               	movwf	lcd_4bit_send_command@command^0,c
  2698   0015F8  EC51  F00E         	call	_lcd_4bit_send_command	;wreg free
  2699   0015FC  C04C  F048         	movff	lcd_4bit_intialize@lcd,lcd_4bit_send_command@lcd
  2700   001600  C04D  F049         	movff	lcd_4bit_intialize@lcd+1,lcd_4bit_send_command@lcd+1
  2701   001604  0E06               	movlw	6
  2702   001606  6E4A               	movwf	lcd_4bit_send_command@command^0,c
  2703   001608  EC51  F00E         	call	_lcd_4bit_send_command	;wreg free
  2704   00160C  C04C  F048         	movff	lcd_4bit_intialize@lcd,lcd_4bit_send_command@lcd
  2705   001610  C04D  F049         	movff	lcd_4bit_intialize@lcd+1,lcd_4bit_send_command@lcd+1
  2706   001614  0E0C               	movlw	12
  2707   001616  6E4A               	movwf	lcd_4bit_send_command@command^0,c
  2708   001618  EC51  F00E         	call	_lcd_4bit_send_command	;wreg free
  2709   00161C  C04C  F048         	movff	lcd_4bit_intialize@lcd,lcd_4bit_send_command@lcd
  2710   001620  C04D  F049         	movff	lcd_4bit_intialize@lcd+1,lcd_4bit_send_command@lcd+1
  2711   001624  0E28               	movlw	40
  2712   001626  6E4A               	movwf	lcd_4bit_send_command@command^0,c
  2713   001628  EC51  F00E         	call	_lcd_4bit_send_command	;wreg free
  2714   00162C                     
  2715                           ;ECU_Layer/LCD/ecu_lcd.c: 42:         ret = lcd_4bit_send_command(lcd, 0x80);
  2716   00162C  C04C  F048         	movff	lcd_4bit_intialize@lcd,lcd_4bit_send_command@lcd
  2717   001630  C04D  F049         	movff	lcd_4bit_intialize@lcd+1,lcd_4bit_send_command@lcd+1
  2718   001634  0E80               	movlw	128
  2719   001636  6E4A               	movwf	lcd_4bit_send_command@command^0,c
  2720   001638  EC51  F00E         	call	_lcd_4bit_send_command	;wreg free
  2721   00163C  6E51               	movwf	lcd_4bit_intialize@ret^0,c
  2722   00163E                     l1729:
  2723                           
  2724                           ;ECU_Layer/LCD/ecu_lcd.c: 44:     return ret;
  2725   00163E  5051               	movf	lcd_4bit_intialize@ret^0,w,c
  2726   001640  0012               	return		;funcret
  2727   001642                     __end_of_lcd_4bit_intialize:
  2728                           	callstack 0
  2729                           
  2730 ;; *************** function _lcd_4bit_send_command *****************
  2731 ;; Defined at:
  2732 ;;		line 55 in file "ECU_Layer/LCD/ecu_lcd.c"
  2733 ;; Parameters:    Size  Location     Type
  2734 ;;  lcd             2   19[COMRAM] PTR const struct .
  2735 ;;		 -> lcd(6), 
  2736 ;;  command         1   21[COMRAM] unsigned char 
  2737 ;; Auto vars:     Size  Location     Type
  2738 ;;  ret             1   22[COMRAM] unsigned char 
  2739 ;; Return value:  Size  Location     Type
  2740 ;;                  1    wreg      unsigned char 
  2741 ;; Registers used:
  2742 ;;		wreg, fsr2l, fsr2h, status,2, status,0, prodl, prodh, cstack
  2743 ;; Tracked objects:
  2744 ;;		On entry : 0/0
  2745 ;;		On exit  : 0/0
  2746 ;;		Unchanged: 0/0
  2747 ;; Data sizes:     COMRAM   BANK0   BANK1   BANK2   BANK3   BANK4   BANK5   BANK6   BANK7   BANK8   BANK9  BANK10  BANK1
      +1  BANK12  BANK13  BANK14  BANK15
  2748 ;;      Params:         3       0       0       0       0       0       0       0       0       0       0       0       
      +0       0       0       0       0
  2749 ;;      Locals:         1       0       0       0       0       0       0       0       0       0       0       0       
      +0       0       0       0       0
  2750 ;;      Temps:          0       0       0       0       0       0       0       0       0       0       0       0       
      +0       0       0       0       0
  2751 ;;      Totals:         4       0       0       0       0       0       0       0       0       0       0       0       
      +0       0       0       0       0
  2752 ;;Total ram usage:        4 bytes
  2753 ;; Hardware stack levels used: 1
  2754 ;; Hardware stack levels required when called: 2
  2755 ;; This function calls:
  2756 ;;		_gpio_pin_write_logic
  2757 ;;		_lcd_send_4bit
  2758 ;;		_send_4bit_enable_signal
  2759 ;; This function is called by:
  2760 ;;		_lcd_4bit_intialize
  2761 ;;		_lcd_4bit_set_cursor
  2762 ;;		_main
  2763 ;; This function uses a non-reentrant model
  2764 ;;
  2765                           
  2766                           	psect	text18
  2767   001CA2                     __ptext18:
  2768                           	callstack 0
  2769   001CA2                     _lcd_4bit_send_command:
  2770                           	callstack 26
  2771   001CA2                     
  2772                           ;ECU_Layer/LCD/ecu_lcd.c: 56:     Std_ReturnType ret = (Std_ReturnType)0x00;
  2773   001CA2  0E00               	movlw	0
  2774   001CA4  6E4B               	movwf	lcd_4bit_send_command@ret^0,c
  2775   001CA6                     
  2776                           ;ECU_Layer/LCD/ecu_lcd.c: 57:     if(((void*)0) != lcd){
  2777   001CA6  5048               	movf	lcd_4bit_send_command@lcd^0,w,c
  2778   001CA8  1049               	iorwf	(lcd_4bit_send_command@lcd+1)^0,w,c
  2779   001CAA  B4D8               	btfsc	status,2,c
  2780   001CAC  EF5A  F00E         	goto	u731
  2781   001CB0  EF5C  F00E         	goto	u730
  2782   001CB4                     u731:
  2783   001CB4  EF82  F00E         	goto	l1623
  2784   001CB8                     u730:
  2785   001CB8  C048  F035         	movff	lcd_4bit_send_command@lcd,gpio_pin_write_logic@_pin_config
  2786   001CBC  C049  F036         	movff	lcd_4bit_send_command@lcd+1,gpio_pin_write_logic@_pin_config+1
  2787   001CC0  0E00               	movlw	0
  2788   001CC2  6E37               	movwf	gpio_pin_write_logic@logic^0,c
  2789   001CC4  ECFB  F009         	call	_gpio_pin_write_logic	;wreg free
  2790   001CC8  C048  F03F         	movff	lcd_4bit_send_command@lcd,lcd_send_4bit@lcd
  2791   001CCC  C049  F040         	movff	lcd_4bit_send_command@lcd+1,lcd_send_4bit@lcd+1
  2792   001CD0  384A               	swapf	lcd_4bit_send_command@command^0,w,c
  2793   001CD2  0B0F               	andlw	15
  2794   001CD4  6E41               	movwf	lcd_send_4bit@data^0,c
  2795   001CD6  EC49  F00D         	call	_lcd_send_4bit	;wreg free
  2796   001CDA  C048  F03F         	movff	lcd_4bit_send_command@lcd,send_4bit_enable_signal@lcd
  2797   001CDE  C049  F040         	movff	lcd_4bit_send_command@lcd+1,send_4bit_enable_signal@lcd+1
  2798   001CE2  ECB0  F00E         	call	_send_4bit_enable_signal	;wreg free
  2799   001CE6  C048  F03F         	movff	lcd_4bit_send_command@lcd,lcd_send_4bit@lcd
  2800   001CEA  C049  F040         	movff	lcd_4bit_send_command@lcd+1,lcd_send_4bit@lcd+1
  2801   001CEE  C04A  F041         	movff	lcd_4bit_send_command@command,lcd_send_4bit@data
  2802   001CF2  EC49  F00D         	call	_lcd_send_4bit	;wreg free
  2803   001CF6                     
  2804                           ;ECU_Layer/LCD/ecu_lcd.c: 63:         ret = send_4bit_enable_signal(lcd);
  2805   001CF6  C048  F03F         	movff	lcd_4bit_send_command@lcd,send_4bit_enable_signal@lcd
  2806   001CFA  C049  F040         	movff	lcd_4bit_send_command@lcd+1,send_4bit_enable_signal@lcd+1
  2807   001CFE  ECB0  F00E         	call	_send_4bit_enable_signal	;wreg free
  2808   001D02  6E4B               	movwf	lcd_4bit_send_command@ret^0,c
  2809   001D04                     l1623:
  2810                           
  2811                           ;ECU_Layer/LCD/ecu_lcd.c: 65:     return ret;
  2812   001D04  504B               	movf	lcd_4bit_send_command@ret^0,w,c
  2813   001D06  0012               	return		;funcret
  2814   001D08                     __end_of_lcd_4bit_send_command:
  2815                           	callstack 0
  2816                           
  2817 ;; *************** function _send_4bit_enable_signal *****************
  2818 ;; Defined at:
  2819 ;;		line 173 in file "ECU_Layer/LCD/ecu_lcd.c"
  2820 ;; Parameters:    Size  Location     Type
  2821 ;;  lcd             2   10[COMRAM] PTR const struct .
  2822 ;;		 -> lcd(6), 
  2823 ;; Auto vars:     Size  Location     Type
  2824 ;;  ret             1   12[COMRAM] unsigned char 
  2825 ;; Return value:  Size  Location     Type
  2826 ;;                  1    wreg      unsigned char 
  2827 ;; Registers used:
  2828 ;;		wreg, fsr2l, fsr2h, status,2, status,0, prodl, prodh, cstack
  2829 ;; Tracked objects:
  2830 ;;		On entry : 0/0
  2831 ;;		On exit  : 0/0
  2832 ;;		Unchanged: 0/0
  2833 ;; Data sizes:     COMRAM   BANK0   BANK1   BANK2   BANK3   BANK4   BANK5   BANK6   BANK7   BANK8   BANK9  BANK10  BANK1
      +1  BANK12  BANK13  BANK14  BANK15
  2834 ;;      Params:         2       0       0       0       0       0       0       0       0       0       0       0       
      +0       0       0       0       0
  2835 ;;      Locals:         1       0       0       0       0       0       0       0       0       0       0       0       
      +0       0       0       0       0
  2836 ;;      Temps:          0       0       0       0       0       0       0       0       0       0       0       0       
      +0       0       0       0       0
  2837 ;;      Totals:         3       0       0       0       0       0       0       0       0       0       0       0       
      +0       0       0       0       0
  2838 ;;Total ram usage:        3 bytes
  2839 ;; Hardware stack levels used: 1
  2840 ;; Hardware stack levels required when called: 1
  2841 ;; This function calls:
  2842 ;;		_gpio_pin_write_logic
  2843 ;; This function is called by:
  2844 ;;		_lcd_4bit_send_command
  2845 ;;		_lcd_4bit_send_char
  2846 ;; This function uses a non-reentrant model
  2847 ;;
  2848                           
  2849                           	psect	text19
  2850   001D60                     __ptext19:
  2851                           	callstack 0
  2852   001D60                     _send_4bit_enable_signal:
  2853                           	callstack 26
  2854   001D60                     
  2855                           ;ECU_Layer/LCD/ecu_lcd.c: 174:     Std_ReturnType ret = (Std_ReturnType)0x00;
  2856   001D60  0E00               	movlw	0
  2857   001D62  6E41               	movwf	send_4bit_enable_signal@ret^0,c
  2858   001D64                     
  2859                           ;ECU_Layer/LCD/ecu_lcd.c: 175:     if(((void*)0) != lcd){
  2860   001D64  503F               	movf	send_4bit_enable_signal@lcd^0,w,c
  2861   001D66  1040               	iorwf	(send_4bit_enable_signal@lcd+1)^0,w,c
  2862   001D68  B4D8               	btfsc	status,2,c
  2863   001D6A  EFB9  F00E         	goto	u701
  2864   001D6E  EFBB  F00E         	goto	u700
  2865   001D72                     u701:
  2866   001D72  EFD3  F00E         	goto	l94
  2867   001D76                     u700:
  2868   001D76  0E01               	movlw	1
  2869   001D78  243F               	addwf	send_4bit_enable_signal@lcd^0,w,c
  2870   001D7A  6E35               	movwf	gpio_pin_write_logic@_pin_config^0,c
  2871   001D7C  0E00               	movlw	0
  2872   001D7E  2040               	addwfc	(send_4bit_enable_signal@lcd+1)^0,w,c
  2873   001D80  6E36               	movwf	(gpio_pin_write_logic@_pin_config+1)^0,c
  2874   001D82  0E01               	movlw	1
  2875   001D84  6E37               	movwf	gpio_pin_write_logic@logic^0,c
  2876   001D86  ECFB  F009         	call	_gpio_pin_write_logic	;wreg free
  2877   001D8A                     
  2878                           ;ECU_Layer/LCD/ecu_lcd.c: 178:         _delay((unsigned long)((5)*(4000000/4000000.0)));
  2879   001D8A  D000               	nop2		;2 cycle nop
  2880   001D8C  D000               	nop2		;2 cycle nop
  2881   001D8E  F000               	nop	
  2882   001D90                     
  2883                           ;ECU_Layer/LCD/ecu_lcd.c: 179:         ret = gpio_pin_write_logic(&(lcd->lcd_enable), GP
      +                          IO_LOW);
  2884   001D90  0E01               	movlw	1
  2885   001D92  243F               	addwf	send_4bit_enable_signal@lcd^0,w,c
  2886   001D94  6E35               	movwf	gpio_pin_write_logic@_pin_config^0,c
  2887   001D96  0E00               	movlw	0
  2888   001D98  2040               	addwfc	(send_4bit_enable_signal@lcd+1)^0,w,c
  2889   001D9A  6E36               	movwf	(gpio_pin_write_logic@_pin_config+1)^0,c
  2890   001D9C  0E00               	movlw	0
  2891   001D9E  6E37               	movwf	gpio_pin_write_logic@logic^0,c
  2892   001DA0  ECFB  F009         	call	_gpio_pin_write_logic	;wreg free
  2893   001DA4  6E41               	movwf	send_4bit_enable_signal@ret^0,c
  2894   001DA6                     l94:
  2895                           
  2896                           ;ECU_Layer/LCD/ecu_lcd.c: 181:     return ret;
  2897   001DA6  5041               	movf	send_4bit_enable_signal@ret^0,w,c
  2898   001DA8  0012               	return		;funcret
  2899   001DAA                     __end_of_send_4bit_enable_signal:
  2900                           	callstack 0
  2901                           
  2902 ;; *************** function _lcd_send_4bit *****************
  2903 ;; Defined at:
  2904 ;;		line 156 in file "ECU_Layer/LCD/ecu_lcd.c"
  2905 ;; Parameters:    Size  Location     Type
  2906 ;;  lcd             2   10[COMRAM] PTR const struct .
  2907 ;;		 -> lcd(6), 
  2908 ;;  data            1   12[COMRAM] unsigned char 
  2909 ;; Auto vars:     Size  Location     Type
  2910 ;;  line_pins       1   18[COMRAM] unsigned char 
  2911 ;;  ret             1   17[COMRAM] unsigned char 
  2912 ;; Return value:  Size  Location     Type
  2913 ;;                  1    wreg      unsigned char 
  2914 ;; Registers used:
  2915 ;;		wreg, fsr2l, fsr2h, status,2, status,0, prodl, prodh, cstack
  2916 ;; Tracked objects:
  2917 ;;		On entry : 0/0
  2918 ;;		On exit  : 0/0
  2919 ;;		Unchanged: 0/0
  2920 ;; Data sizes:     COMRAM   BANK0   BANK1   BANK2   BANK3   BANK4   BANK5   BANK6   BANK7   BANK8   BANK9  BANK10  BANK1
      +1  BANK12  BANK13  BANK14  BANK15
  2921 ;;      Params:         3       0       0       0       0       0       0       0       0       0       0       0       
      +0       0       0       0       0
  2922 ;;      Locals:         2       0       0       0       0       0       0       0       0       0       0       0       
      +0       0       0       0       0
  2923 ;;      Temps:          4       0       0       0       0       0       0       0       0       0       0       0       
      +0       0       0       0       0
  2924 ;;      Totals:         9       0       0       0       0       0       0       0       0       0       0       0       
      +0       0       0       0       0
  2925 ;;Total ram usage:        9 bytes
  2926 ;; Hardware stack levels used: 1
  2927 ;; Hardware stack levels required when called: 1
  2928 ;; This function calls:
  2929 ;;		_gpio_pin_write_logic
  2930 ;; This function is called by:
  2931 ;;		_lcd_4bit_send_command
  2932 ;;		_lcd_4bit_send_char
  2933 ;; This function uses a non-reentrant model
  2934 ;;
  2935                           
  2936                           	psect	text20
  2937   001A92                     __ptext20:
  2938                           	callstack 0
  2939   001A92                     _lcd_send_4bit:
  2940                           	callstack 26
  2941   001A92                     
  2942                           ;ECU_Layer/LCD/ecu_lcd.c: 157:     Std_ReturnType ret = (Std_ReturnType)0x00;
  2943   001A92  0E00               	movlw	0
  2944   001A94  6E46               	movwf	lcd_send_4bit@ret^0,c
  2945   001A96                     
  2946                           ;ECU_Layer/LCD/ecu_lcd.c: 158:     if(((void*)0) != lcd){
  2947   001A96  503F               	movf	lcd_send_4bit@lcd^0,w,c
  2948   001A98  1040               	iorwf	(lcd_send_4bit@lcd+1)^0,w,c
  2949   001A9A  B4D8               	btfsc	status,2,c
  2950   001A9C  EF52  F00D         	goto	u671
  2951   001AA0  EF54  F00D         	goto	u670
  2952   001AA4                     u671:
  2953   001AA4  EF7D  F00D         	goto	l1575
  2954   001AA8                     u670:
  2955   001AA8                     
  2956                           ;ECU_Layer/LCD/ecu_lcd.c: 160:         for(uint8 line_pins = 0 ; line_pins < 4 ; line_pi
      +                          ns++){
  2957   001AA8  0E00               	movlw	0
  2958   001AAA  6E47               	movwf	lcd_send_4bit@line_pins^0,c
  2959   001AAC                     l1569:
  2960                           
  2961                           ;ECU_Layer/LCD/ecu_lcd.c: 161:             ret = gpio_pin_write_logic(&(lcd->data_lines[
      +                          line_pins]), (data >> line_pins) & 0x01);
  2962   001AAC  5047               	movf	lcd_send_4bit@line_pins^0,w,c
  2963   001AAE  243F               	addwf	lcd_send_4bit@lcd^0,w,c
  2964   001AB0  6E42               	movwf	??_lcd_send_4bit^0,c
  2965   001AB2  0E00               	movlw	0
  2966   001AB4  2040               	addwfc	(lcd_send_4bit@lcd+1)^0,w,c
  2967   001AB6  6E43               	movwf	(??_lcd_send_4bit+1)^0,c
  2968   001AB8  0E02               	movlw	2
  2969   001ABA  2442               	addwf	??_lcd_send_4bit^0,w,c
  2970   001ABC  6E35               	movwf	gpio_pin_write_logic@_pin_config^0,c
  2971   001ABE  0E00               	movlw	0
  2972   001AC0  2043               	addwfc	(??_lcd_send_4bit+1)^0,w,c
  2973   001AC2  6E36               	movwf	(gpio_pin_write_logic@_pin_config+1)^0,c
  2974   001AC4  C047  F044         	movff	lcd_send_4bit@line_pins,??_lcd_send_4bit+2
  2975   001AC8  C041  F045         	movff	lcd_send_4bit@data,??_lcd_send_4bit+3
  2976   001ACC  2A44               	incf	(??_lcd_send_4bit+2)^0,f,c
  2977   001ACE  EF6B  F00D         	goto	u684
  2978   001AD2                     u685:
  2979   001AD2  90D8               	bcf	status,0,c
  2980   001AD4  3245               	rrcf	(??_lcd_send_4bit+3)^0,f,c
  2981   001AD6                     u684:
  2982   001AD6  2E44               	decfsz	(??_lcd_send_4bit+2)^0,f,c
  2983   001AD8  EF69  F00D         	goto	u685
  2984   001ADC  5045               	movf	(??_lcd_send_4bit+3)^0,w,c
  2985   001ADE  0B01               	andlw	1
  2986   001AE0  6E37               	movwf	gpio_pin_write_logic@logic^0,c
  2987   001AE2  ECFB  F009         	call	_gpio_pin_write_logic	;wreg free
  2988   001AE6  6E46               	movwf	lcd_send_4bit@ret^0,c
  2989   001AE8                     
  2990                           ;ECU_Layer/LCD/ecu_lcd.c: 162:         }
  2991   001AE8  2A47               	incf	lcd_send_4bit@line_pins^0,f,c
  2992   001AEA  0E03               	movlw	3
  2993   001AEC  6447               	cpfsgt	lcd_send_4bit@line_pins^0,c
  2994   001AEE  EF7B  F00D         	goto	u691
  2995   001AF2  EF7D  F00D         	goto	u690
  2996   001AF6                     u691:
  2997   001AF6  EF56  F00D         	goto	l1569
  2998   001AFA                     u690:
  2999   001AFA                     l1575:
  3000                           
  3001                           ;ECU_Layer/LCD/ecu_lcd.c: 164:     return ret;
  3002   001AFA  5046               	movf	lcd_send_4bit@ret^0,w,c
  3003   001AFC  0012               	return		;funcret
  3004   001AFE                     __end_of_lcd_send_4bit:
  3005                           	callstack 0
  3006                           
  3007 ;; *************** function _keypad_intialize *****************
  3008 ;; Defined at:
  3009 ;;		line 24 in file "ECU_Layer/Keypad/ecu_keypad.c"
  3010 ;; Parameters:    Size  Location     Type
  3011 ;;  keypad          2   14[COMRAM] PTR const struct .
  3012 ;;		 -> keypad(7), 
  3013 ;; Auto vars:     Size  Location     Type
  3014 ;;  col_counter     2   21[COMRAM] int 
  3015 ;;  rows_counter    2   19[COMRAM] int 
  3016 ;;  ret             1   18[COMRAM] unsigned char 
  3017 ;; Return value:  Size  Location     Type
  3018 ;;                  1    wreg      unsigned char 
  3019 ;; Registers used:
  3020 ;;		wreg, fsr2l, fsr2h, status,2, status,0, prodl, prodh, cstack
  3021 ;; Tracked objects:
  3022 ;;		On entry : 0/0
  3023 ;;		On exit  : 0/0
  3024 ;;		Unchanged: 0/0
  3025 ;; Data sizes:     COMRAM   BANK0   BANK1   BANK2   BANK3   BANK4   BANK5   BANK6   BANK7   BANK8   BANK9  BANK10  BANK1
      +1  BANK12  BANK13  BANK14  BANK15
  3026 ;;      Params:         2       0       0       0       0       0       0       0       0       0       0       0       
      +0       0       0       0       0
  3027 ;;      Locals:         5       0       0       0       0       0       0       0       0       0       0       0       
      +0       0       0       0       0
  3028 ;;      Temps:          2       0       0       0       0       0       0       0       0       0       0       0       
      +0       0       0       0       0
  3029 ;;      Totals:         9       0       0       0       0       0       0       0       0       0       0       0       
      +0       0       0       0       0
  3030 ;;Total ram usage:        9 bytes
  3031 ;; Hardware stack levels used: 1
  3032 ;; Hardware stack levels required when called: 2
  3033 ;; This function calls:
  3034 ;;		_gpio_pin_direction_intialize
  3035 ;;		_gpio_pin_intialize
  3036 ;; This function is called by:
  3037 ;;		_ecu_layer_intialize
  3038 ;; This function uses a non-reentrant model
  3039 ;;
  3040                           
  3041                           	psect	text21
  3042   001878                     __ptext21:
  3043                           	callstack 0
  3044   001878                     _keypad_intialize:
  3045                           	callstack 26
  3046   001878                     
  3047                           ;ECU_Layer/Keypad/ecu_keypad.c: 25:     Std_ReturnType ret = (Std_ReturnType)0x00;
  3048   001878  0E00               	movlw	0
  3049   00187A  6E47               	movwf	keypad_intialize@ret^0,c
  3050   00187C                     
  3051                           ;ECU_Layer/Keypad/ecu_keypad.c: 26:     if(((void*)0) != keypad){
  3052   00187C  5043               	movf	keypad_intialize@keypad^0,w,c
  3053   00187E  1044               	iorwf	(keypad_intialize@keypad+1)^0,w,c
  3054   001880  B4D8               	btfsc	status,2,c
  3055   001882  EF45  F00C         	goto	u751
  3056   001886  EF47  F00C         	goto	u750
  3057   00188A                     u751:
  3058   00188A  EF86  F00C         	goto	l1667
  3059   00188E                     u750:
  3060   00188E                     
  3061                           ;ECU_Layer/Keypad/ecu_keypad.c: 28:         for(int rows_counter = 0 ; rows_counter < 4 
      +                          ; rows_counter++){
  3062   00188E  0E00               	movlw	0
  3063   001890  6E49               	movwf	(keypad_intialize@rows_counter+1)^0,c
  3064   001892  0E00               	movlw	0
  3065   001894  6E48               	movwf	keypad_intialize@rows_counter^0,c
  3066   001896                     l1649:
  3067   001896  5048               	movf	keypad_intialize@rows_counter^0,w,c
  3068   001898  2443               	addwf	keypad_intialize@keypad^0,w,c
  3069   00189A  6E3F               	movwf	gpio_pin_intialize@_pin_config^0,c
  3070   00189C  5049               	movf	(keypad_intialize@rows_counter+1)^0,w,c
  3071   00189E  2044               	addwfc	(keypad_intialize@keypad+1)^0,w,c
  3072   0018A0  6E40               	movwf	(gpio_pin_intialize@_pin_config+1)^0,c
  3073   0018A2  EC7F  F00D         	call	_gpio_pin_intialize	;wreg free
  3074   0018A6                     
  3075                           ;ECU_Layer/Keypad/ecu_keypad.c: 30:         }
  3076   0018A6  4A48               	infsnz	keypad_intialize@rows_counter^0,f,c
  3077   0018A8  2A49               	incf	(keypad_intialize@rows_counter+1)^0,f,c
  3078   0018AA  BE49               	btfsc	(keypad_intialize@rows_counter+1)^0,7,c
  3079   0018AC  EF61  F00C         	goto	u761
  3080   0018B0  5049               	movf	(keypad_intialize@rows_counter+1)^0,w,c
  3081   0018B2  E109               	bnz	u760
  3082   0018B4  0E04               	movlw	4
  3083   0018B6  5C48               	subwf	keypad_intialize@rows_counter^0,w,c
  3084   0018B8  A0D8               	btfss	status,0,c
  3085   0018BA  EF61  F00C         	goto	u761
  3086   0018BE  EF63  F00C         	goto	u760
  3087   0018C2                     u761:
  3088   0018C2  EF4B  F00C         	goto	l1649
  3089   0018C6                     u760:
  3090   0018C6                     
  3091                           ;ECU_Layer/Keypad/ecu_keypad.c: 31:         for(int col_counter = 0 ; col_counter < 3 ; 
      +                          col_counter++){
  3092   0018C6  0E00               	movlw	0
  3093   0018C8  6E4B               	movwf	(keypad_intialize@col_counter+1)^0,c
  3094   0018CA  0E00               	movlw	0
  3095   0018CC  6E4A               	movwf	keypad_intialize@col_counter^0,c
  3096   0018CE                     l1661:
  3097                           
  3098                           ;ECU_Layer/Keypad/ecu_keypad.c: 32:             ret = gpio_pin_direction_intialize(&(key
      +                          pad->keypad_coloumns_pins[col_counter]));
  3099   0018CE  504A               	movf	keypad_intialize@col_counter^0,w,c
  3100   0018D0  2443               	addwf	keypad_intialize@keypad^0,w,c
  3101   0018D2  6E45               	movwf	??_keypad_intialize^0,c
  3102   0018D4  504B               	movf	(keypad_intialize@col_counter+1)^0,w,c
  3103   0018D6  2044               	addwfc	(keypad_intialize@keypad+1)^0,w,c
  3104   0018D8  6E46               	movwf	(??_keypad_intialize+1)^0,c
  3105   0018DA  0E04               	movlw	4
  3106   0018DC  2445               	addwf	??_keypad_intialize^0,w,c
  3107   0018DE  6E35               	movwf	gpio_pin_direction_intialize@_pin_config^0,c
  3108   0018E0  0E00               	movlw	0
  3109   0018E2  2046               	addwfc	(??_keypad_intialize+1)^0,w,c
  3110   0018E4  6E36               	movwf	(gpio_pin_direction_intialize@_pin_config+1)^0,c
  3111   0018E6  EC59  F009         	call	_gpio_pin_direction_intialize	;wreg free
  3112   0018EA  6E47               	movwf	keypad_intialize@ret^0,c
  3113   0018EC                     
  3114                           ;ECU_Layer/Keypad/ecu_keypad.c: 33:         }
  3115   0018EC  4A4A               	infsnz	keypad_intialize@col_counter^0,f,c
  3116   0018EE  2A4B               	incf	(keypad_intialize@col_counter+1)^0,f,c
  3117   0018F0  BE4B               	btfsc	(keypad_intialize@col_counter+1)^0,7,c
  3118   0018F2  EF84  F00C         	goto	u771
  3119   0018F6  504B               	movf	(keypad_intialize@col_counter+1)^0,w,c
  3120   0018F8  E109               	bnz	u770
  3121   0018FA  0E03               	movlw	3
  3122   0018FC  5C4A               	subwf	keypad_intialize@col_counter^0,w,c
  3123   0018FE  A0D8               	btfss	status,0,c
  3124   001900  EF84  F00C         	goto	u771
  3125   001904  EF86  F00C         	goto	u770
  3126   001908                     u771:
  3127   001908  EF67  F00C         	goto	l1661
  3128   00190C                     u770:
  3129   00190C                     l1667:
  3130                           
  3131                           ;ECU_Layer/Keypad/ecu_keypad.c: 35:     return ret;
  3132   00190C  5047               	movf	keypad_intialize@ret^0,w,c
  3133   00190E  0012               	return		;funcret
  3134   001910                     __end_of_keypad_intialize:
  3135                           	callstack 0
  3136                           
  3137 ;; *************** function _gpio_pin_intialize *****************
  3138 ;; Defined at:
  3139 ;;		line 93 in file "MCAL_Layer/GPIO/hal_gpio.c"
  3140 ;; Parameters:    Size  Location     Type
  3141 ;;  _pin_config     2   10[COMRAM] PTR const struct .
  3142 ;;		 -> lcd.data_lines(4), lcd(6), keypad.keypad_rows_pins(4), keypad(7), 
  3143 ;;		 -> motor.motor_pin(2), motor(2), led_intialiaze@pin_config_obj(1), 
  3144 ;; Auto vars:     Size  Location     Type
  3145 ;;  ret             1   13[COMRAM] unsigned char 
  3146 ;; Return value:  Size  Location     Type
  3147 ;;                  1    wreg      unsigned char 
  3148 ;; Registers used:
  3149 ;;		wreg, fsr2l, fsr2h, status,2, status,0, prodl, prodh, cstack
  3150 ;; Tracked objects:
  3151 ;;		On entry : 0/0
  3152 ;;		On exit  : 0/0
  3153 ;;		Unchanged: 0/0
  3154 ;; Data sizes:     COMRAM   BANK0   BANK1   BANK2   BANK3   BANK4   BANK5   BANK6   BANK7   BANK8   BANK9  BANK10  BANK1
      +1  BANK12  BANK13  BANK14  BANK15
  3155 ;;      Params:         2       0       0       0       0       0       0       0       0       0       0       0       
      +0       0       0       0       0
  3156 ;;      Locals:         1       0       0       0       0       0       0       0       0       0       0       0       
      +0       0       0       0       0
  3157 ;;      Temps:          1       0       0       0       0       0       0       0       0       0       0       0       
      +0       0       0       0       0
  3158 ;;      Totals:         4       0       0       0       0       0       0       0       0       0       0       0       
      +0       0       0       0       0
  3159 ;;Total ram usage:        4 bytes
  3160 ;; Hardware stack levels used: 1
  3161 ;; Hardware stack levels required when called: 1
  3162 ;; This function calls:
  3163 ;;		_gpio_pin_direction_intialize
  3164 ;;		_gpio_pin_write_logic
  3165 ;; This function is called by:
  3166 ;;		_motor_intialize
  3167 ;;		_keypad_intialize
  3168 ;;		_lcd_4bit_intialize
  3169 ;;		_led_intialiaze
  3170 ;; This function uses a non-reentrant model
  3171 ;;
  3172                           
  3173                           	psect	text22
  3174   001AFE                     __ptext22:
  3175                           	callstack 0
  3176   001AFE                     _gpio_pin_intialize:
  3177                           	callstack 26
  3178   001AFE                     
  3179                           ;MCAL_Layer/GPIO/hal_gpio.c: 95:     if(_pin_config == ((void*)0) || _pin_config->pin > 
      +                          8 -1){
  3180   001AFE  503F               	movf	gpio_pin_intialize@_pin_config^0,w,c
  3181   001B00  1040               	iorwf	(gpio_pin_intialize@_pin_config+1)^0,w,c
  3182   001B02  B4D8               	btfsc	status,2,c
  3183   001B04  EF86  F00D         	goto	u711
  3184   001B08  EF88  F00D         	goto	u710
  3185   001B0C                     u711:
  3186   001B0C  EF99  F00D         	goto	l1599
  3187   001B10                     u710:
  3188   001B10  C03F  FFD9         	movff	gpio_pin_intialize@_pin_config,fsr2l
  3189   001B14  C040  FFDA         	movff	gpio_pin_intialize@_pin_config+1,fsr2h
  3190   001B18  30DF               	rrcf	223,w,c
  3191   001B1A  32E8               	rrcf	wreg,f,c
  3192   001B1C  32E8               	rrcf	wreg,f,c
  3193   001B1E  0B07               	andlw	7
  3194   001B20  6E41               	movwf	??_gpio_pin_intialize^0,c
  3195   001B22  0E07               	movlw	7
  3196   001B24  6441               	cpfsgt	??_gpio_pin_intialize^0,c
  3197   001B26  EF97  F00D         	goto	u721
  3198   001B2A  EF99  F00D         	goto	u720
  3199   001B2E                     u721:
  3200   001B2E  EF9D  F00D         	goto	l1601
  3201   001B32                     u720:
  3202   001B32                     l1599:
  3203                           
  3204                           ;MCAL_Layer/GPIO/hal_gpio.c: 96:         ret = (Std_ReturnType)0x00;
  3205   001B32  0E00               	movlw	0
  3206   001B34  6E42               	movwf	gpio_pin_intialize@ret^0,c
  3207                           
  3208                           ;MCAL_Layer/GPIO/hal_gpio.c: 97:     }
  3209   001B36  EFB3  F00D         	goto	l1603
  3210   001B3A                     l1601:
  3211                           
  3212                           ;MCAL_Layer/GPIO/hal_gpio.c: 99:         ret = gpio_pin_direction_intialize(_pin_config)
      +                          ;
  3213   001B3A  C03F  F035         	movff	gpio_pin_intialize@_pin_config,gpio_pin_direction_intialize@_pin_config
  3214   001B3E  C040  F036         	movff	gpio_pin_intialize@_pin_config+1,gpio_pin_direction_intialize@_pin_config+1
  3215   001B42  EC59  F009         	call	_gpio_pin_direction_intialize	;wreg free
  3216   001B46  6E42               	movwf	gpio_pin_intialize@ret^0,c
  3217                           
  3218                           ;MCAL_Layer/GPIO/hal_gpio.c: 100:         ret = gpio_pin_write_logic(_pin_config,_pin_co
      +                          nfig->logic);
  3219   001B48  C03F  F035         	movff	gpio_pin_intialize@_pin_config,gpio_pin_write_logic@_pin_config
  3220   001B4C  C040  F036         	movff	gpio_pin_intialize@_pin_config+1,gpio_pin_write_logic@_pin_config+1
  3221   001B50  C03F  FFD9         	movff	gpio_pin_intialize@_pin_config,fsr2l
  3222   001B54  C040  FFDA         	movff	gpio_pin_intialize@_pin_config+1,fsr2h
  3223   001B58  0E00               	movlw	0
  3224   001B5A  BEDF               	btfsc	indf2,7,c
  3225   001B5C  0E01               	movlw	1
  3226   001B5E  6E37               	movwf	gpio_pin_write_logic@logic^0,c
  3227   001B60  ECFB  F009         	call	_gpio_pin_write_logic	;wreg free
  3228   001B64  6E42               	movwf	gpio_pin_intialize@ret^0,c
  3229   001B66                     l1603:
  3230                           
  3231                           ;MCAL_Layer/GPIO/hal_gpio.c: 102:     return ret;
  3232   001B66  5042               	movf	gpio_pin_intialize@ret^0,w,c
  3233   001B68  0012               	return		;funcret
  3234   001B6A                     __end_of_gpio_pin_intialize:
  3235                           	callstack 0
  3236                           
  3237 ;; *************** function _gpio_pin_write_logic *****************
  3238 ;; Defined at:
  3239 ;;		line 48 in file "MCAL_Layer/GPIO/hal_gpio.c"
  3240 ;; Parameters:    Size  Location     Type
  3241 ;;  _pin_config     2    0[COMRAM] PTR const struct .
  3242 ;;		 -> lcd.data_lines(4), lcd(6), keypad.keypad_rows_pins(4), keypad(7), 
  3243 ;;		 -> motor.motor_pin(2), motor(2), led_turn_off@pin_config_obj(1), led_turn_on@pin_config_obj(1), 
  3244 ;;		 -> led_intialiaze@pin_config_obj(1), 
  3245 ;;  logic           1    2[COMRAM] enum E2965
  3246 ;; Auto vars:     Size  Location     Type
  3247 ;;  ret             1    9[COMRAM] unsigned char 
  3248 ;; Return value:  Size  Location     Type
  3249 ;;                  1    wreg      unsigned char 
  3250 ;; Registers used:
  3251 ;;		wreg, fsr2l, fsr2h, status,2, status,0, prodl, prodh
  3252 ;; Tracked objects:
  3253 ;;		On entry : 0/0
  3254 ;;		On exit  : 0/0
  3255 ;;		Unchanged: 0/0
  3256 ;; Data sizes:     COMRAM   BANK0   BANK1   BANK2   BANK3   BANK4   BANK5   BANK6   BANK7   BANK8   BANK9  BANK10  BANK1
      +1  BANK12  BANK13  BANK14  BANK15
  3257 ;;      Params:         3       0       0       0       0       0       0       0       0       0       0       0       
      +0       0       0       0       0
  3258 ;;      Locals:         1       0       0       0       0       0       0       0       0       0       0       0       
      +0       0       0       0       0
  3259 ;;      Temps:          6       0       0       0       0       0       0       0       0       0       0       0       
      +0       0       0       0       0
  3260 ;;      Totals:        10       0       0       0       0       0       0       0       0       0       0       0       
      +0       0       0       0       0
  3261 ;;Total ram usage:       10 bytes
  3262 ;; Hardware stack levels used: 1
  3263 ;; This function calls:
  3264 ;;		Nothing
  3265 ;; This function is called by:
  3266 ;;		_motor_move_right
  3267 ;;		_motor_stop
  3268 ;;		_keypad_get_value
  3269 ;;		_lcd_4bit_send_command
  3270 ;;		_lcd_4bit_send_char
  3271 ;;		_lcd_send_4bit
  3272 ;;		_send_4bit_enable_signal
  3273 ;;		_led_turn_on
  3274 ;;		_led_turn_off
  3275 ;;		_gpio_pin_intialize
  3276 ;; This function uses a non-reentrant model
  3277 ;;
  3278                           
  3279                           	psect	text23
  3280   0013F6                     __ptext23:
  3281                           	callstack 0
  3282   0013F6                     _gpio_pin_write_logic:
  3283                           	callstack 29
  3284   0013F6                     
  3285                           ;MCAL_Layer/GPIO/hal_gpio.c: 49:     Std_ReturnType ret = (Std_ReturnType)0x01;
  3286   0013F6  0E01               	movlw	1
  3287   0013F8  6E3E               	movwf	gpio_pin_write_logic@ret^0,c
  3288   0013FA                     
  3289                           ;MCAL_Layer/GPIO/hal_gpio.c: 50:     if(_pin_config == ((void*)0) || _pin_config->pin > 
      +                          8 -1){
  3290   0013FA  5035               	movf	gpio_pin_write_logic@_pin_config^0,w,c
  3291   0013FC  1036               	iorwf	(gpio_pin_write_logic@_pin_config+1)^0,w,c
  3292   0013FE  B4D8               	btfsc	status,2,c
  3293   001400  EF04  F00A         	goto	u571
  3294   001404  EF06  F00A         	goto	u570
  3295   001408                     u571:
  3296   001408  EF17  F00A         	goto	l1517
  3297   00140C                     u570:
  3298   00140C  C035  FFD9         	movff	gpio_pin_write_logic@_pin_config,fsr2l
  3299   001410  C036  FFDA         	movff	gpio_pin_write_logic@_pin_config+1,fsr2h
  3300   001414  30DF               	rrcf	223,w,c
  3301   001416  32E8               	rrcf	wreg,f,c
  3302   001418  32E8               	rrcf	wreg,f,c
  3303   00141A  0B07               	andlw	7
  3304   00141C  6E38               	movwf	??_gpio_pin_write_logic^0,c
  3305   00141E  0E07               	movlw	7
  3306   001420  6438               	cpfsgt	??_gpio_pin_write_logic^0,c
  3307   001422  EF15  F00A         	goto	u581
  3308   001426  EF17  F00A         	goto	u580
  3309   00142A                     u581:
  3310   00142A  EF7A  F00A         	goto	l1525
  3311   00142E                     u580:
  3312   00142E                     l1517:
  3313                           
  3314                           ;MCAL_Layer/GPIO/hal_gpio.c: 51:         ret = (Std_ReturnType)0x00;
  3315   00142E  0E00               	movlw	0
  3316   001430  6E3E               	movwf	gpio_pin_write_logic@ret^0,c
  3317                           
  3318                           ;MCAL_Layer/GPIO/hal_gpio.c: 52:     }
  3319   001432  EF8F  F00A         	goto	l1527
  3320   001436                     l1519:
  3321                           
  3322                           ;MCAL_Layer/GPIO/hal_gpio.c: 56:                 (*lat_registers[_pin_config->port] &= ~
      +                          ((uint8) 1 << _pin_config->pin));
  3323   001436  C035  FFD9         	movff	gpio_pin_write_logic@_pin_config,fsr2l
  3324   00143A  C036  FFDA         	movff	gpio_pin_write_logic@_pin_config+1,fsr2h
  3325   00143E  30DF               	rrcf	223,w,c
  3326   001440  32E8               	rrcf	wreg,f,c
  3327   001442  32E8               	rrcf	wreg,f,c
  3328   001444  0B07               	andlw	7
  3329   001446  6E38               	movwf	??_gpio_pin_write_logic^0,c
  3330   001448  0E01               	movlw	1
  3331   00144A  6E39               	movwf	(??_gpio_pin_write_logic+1)^0,c
  3332   00144C  2A38               	incf	??_gpio_pin_write_logic^0,f,c
  3333   00144E  EF2B  F00A         	goto	u594
  3334   001452                     u595:
  3335   001452  90D8               	bcf	status,0,c
  3336   001454  3639               	rlcf	(??_gpio_pin_write_logic+1)^0,f,c
  3337   001456                     u594:
  3338   001456  2E38               	decfsz	??_gpio_pin_write_logic^0,f,c
  3339   001458  EF29  F00A         	goto	u595
  3340   00145C  5039               	movf	(??_gpio_pin_write_logic+1)^0,w,c
  3341   00145E  0AFF               	xorlw	255
  3342   001460  6E3A               	movwf	(??_gpio_pin_write_logic+2)^0,c
  3343   001462  C035  FFD9         	movff	gpio_pin_write_logic@_pin_config,fsr2l
  3344   001466  C036  FFDA         	movff	gpio_pin_write_logic@_pin_config+1,fsr2h
  3345   00146A  50DF               	movf	223,w,c
  3346   00146C  0B07               	andlw	7
  3347   00146E  6E3B               	movwf	(??_gpio_pin_write_logic+3)^0,c
  3348   001470  503B               	movf	(??_gpio_pin_write_logic+3)^0,w,c
  3349   001472  0D02               	mullw	2
  3350   001474  0E01               	movlw	low _lat_registers
  3351   001476  24F3               	addwf	243,w,c
  3352   001478  6ED9               	movwf	fsr2l,c
  3353   00147A  0E00               	movlw	high _lat_registers
  3354   00147C  20F4               	addwfc	prodh,w,c
  3355   00147E  6EDA               	movwf	fsr2h,c
  3356   001480  CFDE F03C          	movff	postinc2,??_gpio_pin_write_logic+4
  3357   001484  CFDD F03D          	movff	postdec2,??_gpio_pin_write_logic+5
  3358   001488  C03C  FFD9         	movff	??_gpio_pin_write_logic+4,fsr2l
  3359   00148C  C03D  FFDA         	movff	??_gpio_pin_write_logic+5,fsr2h
  3360   001490  503A               	movf	(??_gpio_pin_write_logic+2)^0,w,c
  3361   001492  16DF               	andwf	indf2,f,c
  3362                           
  3363                           ;MCAL_Layer/GPIO/hal_gpio.c: 57:                 break;
  3364   001494  EF8F  F00A         	goto	l1527
  3365   001498                     l1521:
  3366                           
  3367                           ;MCAL_Layer/GPIO/hal_gpio.c: 59:                 (*lat_registers[_pin_config->port] |= (
      +                          (uint8) 1 << _pin_config->pin));
  3368   001498  C035  FFD9         	movff	gpio_pin_write_logic@_pin_config,fsr2l
  3369   00149C  C036  FFDA         	movff	gpio_pin_write_logic@_pin_config+1,fsr2h
  3370   0014A0  30DF               	rrcf	223,w,c
  3371   0014A2  32E8               	rrcf	wreg,f,c
  3372   0014A4  32E8               	rrcf	wreg,f,c
  3373   0014A6  0B07               	andlw	7
  3374   0014A8  6E38               	movwf	??_gpio_pin_write_logic^0,c
  3375   0014AA  0E01               	movlw	1
  3376   0014AC  6E39               	movwf	(??_gpio_pin_write_logic+1)^0,c
  3377   0014AE  2A38               	incf	??_gpio_pin_write_logic^0,f,c
  3378   0014B0  EF5C  F00A         	goto	u604
  3379   0014B4                     u605:
  3380   0014B4  90D8               	bcf	status,0,c
  3381   0014B6  3639               	rlcf	(??_gpio_pin_write_logic+1)^0,f,c
  3382   0014B8                     u604:
  3383   0014B8  2E38               	decfsz	??_gpio_pin_write_logic^0,f,c
  3384   0014BA  EF5A  F00A         	goto	u605
  3385   0014BE  C035  FFD9         	movff	gpio_pin_write_logic@_pin_config,fsr2l
  3386   0014C2  C036  FFDA         	movff	gpio_pin_write_logic@_pin_config+1,fsr2h
  3387   0014C6  50DF               	movf	223,w,c
  3388   0014C8  0B07               	andlw	7
  3389   0014CA  6E3A               	movwf	(??_gpio_pin_write_logic+2)^0,c
  3390   0014CC  503A               	movf	(??_gpio_pin_write_logic+2)^0,w,c
  3391   0014CE  0D02               	mullw	2
  3392   0014D0  0E01               	movlw	low _lat_registers
  3393   0014D2  24F3               	addwf	243,w,c
  3394   0014D4  6ED9               	movwf	fsr2l,c
  3395   0014D6  0E00               	movlw	high _lat_registers
  3396   0014D8  20F4               	addwfc	prodh,w,c
  3397   0014DA  6EDA               	movwf	fsr2h,c
  3398   0014DC  CFDE F03B          	movff	postinc2,??_gpio_pin_write_logic+3
  3399   0014E0  CFDD F03C          	movff	postdec2,??_gpio_pin_write_logic+4
  3400   0014E4  C03B  FFD9         	movff	??_gpio_pin_write_logic+3,fsr2l
  3401   0014E8  C03C  FFDA         	movff	??_gpio_pin_write_logic+4,fsr2h
  3402   0014EC  5039               	movf	(??_gpio_pin_write_logic+1)^0,w,c
  3403   0014EE  12DF               	iorwf	indf2,f,c
  3404                           
  3405                           ;MCAL_Layer/GPIO/hal_gpio.c: 60:                 break;
  3406   0014F0  EF8F  F00A         	goto	l1527
  3407   0014F4                     l1525:
  3408   0014F4  5037               	movf	gpio_pin_write_logic@logic^0,w,c
  3409   0014F6  6E38               	movwf	??_gpio_pin_write_logic^0,c
  3410   0014F8  6A39               	clrf	(??_gpio_pin_write_logic+1)^0,c
  3411                           
  3412                           ; Switch on 2 bytes has been partitioned into a top level switch of size 1, and 1 sub-sw
      +                          itches
  3413                           ; Switch size 1, requested type "simple"
  3414                           ; Number of cases is 1, Range of values is 0 to 0
  3415                           ; switch strategies available:
  3416                           ; Name         Instructions Cycles
  3417                           ; simple_byte            4     3 (average)
  3418                           ;	Chosen strategy is simple_byte
  3419   0014FA  5039               	movf	(??_gpio_pin_write_logic+1)^0,w,c
  3420   0014FC  0A00               	xorlw	0	; case 0
  3421   0014FE  B4D8               	btfsc	status,2,c
  3422   001500  EF84  F00A         	goto	l2055
  3423   001504  EF17  F00A         	goto	l1517
  3424   001508                     l2055:
  3425                           
  3426                           ; Switch size 1, requested type "simple"
  3427                           ; Number of cases is 2, Range of values is 0 to 1
  3428                           ; switch strategies available:
  3429                           ; Name         Instructions Cycles
  3430                           ; simple_byte            7     4 (average)
  3431                           ;	Chosen strategy is simple_byte
  3432   001508  5038               	movf	??_gpio_pin_write_logic^0,w,c
  3433   00150A  0A00               	xorlw	0	; case 0
  3434   00150C  B4D8               	btfsc	status,2,c
  3435   00150E  EF1B  F00A         	goto	l1519
  3436   001512  0A01               	xorlw	1	; case 1
  3437   001514  B4D8               	btfsc	status,2,c
  3438   001516  EF4C  F00A         	goto	l1521
  3439   00151A  EF17  F00A         	goto	l1517
  3440   00151E                     l1527:
  3441                           
  3442                           ;MCAL_Layer/GPIO/hal_gpio.c: 64:     return ret;
  3443   00151E  503E               	movf	gpio_pin_write_logic@ret^0,w,c
  3444   001520  0012               	return		;funcret
  3445   001522                     __end_of_gpio_pin_write_logic:
  3446                           	callstack 0
  3447                           
  3448 ;; *************** function _gpio_pin_direction_intialize *****************
  3449 ;; Defined at:
  3450 ;;		line 21 in file "MCAL_Layer/GPIO/hal_gpio.c"
  3451 ;; Parameters:    Size  Location     Type
  3452 ;;  _pin_config     2    0[COMRAM] PTR const struct .
  3453 ;;		 -> lcd.data_lines(4), lcd(6), keypad.keypad_coloumns_pins(3), keypad.keypad_rows_pins(4), 
  3454 ;;		 -> keypad(7), motor.motor_pin(2), motor(2), led_intialiaze@pin_config_obj(1), 
  3455 ;; Auto vars:     Size  Location     Type
  3456 ;;  ret             1    8[COMRAM] unsigned char 
  3457 ;; Return value:  Size  Location     Type
  3458 ;;                  1    wreg      unsigned char 
  3459 ;; Registers used:
  3460 ;;		wreg, fsr2l, fsr2h, status,2, status,0, prodl, prodh
  3461 ;; Tracked objects:
  3462 ;;		On entry : 0/0
  3463 ;;		On exit  : 0/0
  3464 ;;		Unchanged: 0/0
  3465 ;; Data sizes:     COMRAM   BANK0   BANK1   BANK2   BANK3   BANK4   BANK5   BANK6   BANK7   BANK8   BANK9  BANK10  BANK1
      +1  BANK12  BANK13  BANK14  BANK15
  3466 ;;      Params:         2       0       0       0       0       0       0       0       0       0       0       0       
      +0       0       0       0       0
  3467 ;;      Locals:         1       0       0       0       0       0       0       0       0       0       0       0       
      +0       0       0       0       0
  3468 ;;      Temps:          6       0       0       0       0       0       0       0       0       0       0       0       
      +0       0       0       0       0
  3469 ;;      Totals:         9       0       0       0       0       0       0       0       0       0       0       0       
      +0       0       0       0       0
  3470 ;;Total ram usage:        9 bytes
  3471 ;; Hardware stack levels used: 1
  3472 ;; This function calls:
  3473 ;;		Nothing
  3474 ;; This function is called by:
  3475 ;;		_keypad_intialize
  3476 ;;		_gpio_pin_intialize
  3477 ;; This function uses a non-reentrant model
  3478 ;;
  3479                           
  3480                           	psect	text24
  3481   0012B2                     __ptext24:
  3482                           	callstack 0
  3483   0012B2                     _gpio_pin_direction_intialize:
  3484                           	callstack 26
  3485   0012B2                     
  3486                           ;MCAL_Layer/GPIO/hal_gpio.c: 22:     Std_ReturnType ret = (Std_ReturnType)0x01;
  3487   0012B2  0E01               	movlw	1
  3488   0012B4  6E3D               	movwf	gpio_pin_direction_intialize@ret^0,c
  3489   0012B6                     
  3490                           ;MCAL_Layer/GPIO/hal_gpio.c: 23:     if(_pin_config == ((void*)0) || _pin_config->pin > 
      +                          8 -1){
  3491   0012B6  5035               	movf	gpio_pin_direction_intialize@_pin_config^0,w,c
  3492   0012B8  1036               	iorwf	(gpio_pin_direction_intialize@_pin_config+1)^0,w,c
  3493   0012BA  B4D8               	btfsc	status,2,c
  3494   0012BC  EF62  F009         	goto	u611
  3495   0012C0  EF64  F009         	goto	u610
  3496   0012C4                     u611:
  3497   0012C4  EF75  F009         	goto	l1541
  3498   0012C8                     u610:
  3499   0012C8  C035  FFD9         	movff	gpio_pin_direction_intialize@_pin_config,fsr2l
  3500   0012CC  C036  FFDA         	movff	gpio_pin_direction_intialize@_pin_config+1,fsr2h
  3501   0012D0  30DF               	rrcf	223,w,c
  3502   0012D2  32E8               	rrcf	wreg,f,c
  3503   0012D4  32E8               	rrcf	wreg,f,c
  3504   0012D6  0B07               	andlw	7
  3505   0012D8  6E37               	movwf	??_gpio_pin_direction_intialize^0,c
  3506   0012DA  0E07               	movlw	7
  3507   0012DC  6437               	cpfsgt	??_gpio_pin_direction_intialize^0,c
  3508   0012DE  EF73  F009         	goto	u621
  3509   0012E2  EF75  F009         	goto	u620
  3510   0012E6                     u621:
  3511   0012E6  EFD8  F009         	goto	l1549
  3512   0012EA                     u620:
  3513   0012EA                     l1541:
  3514                           
  3515                           ;MCAL_Layer/GPIO/hal_gpio.c: 24:         ret = (Std_ReturnType)0x00;
  3516   0012EA  0E00               	movlw	0
  3517   0012EC  6E3D               	movwf	gpio_pin_direction_intialize@ret^0,c
  3518                           
  3519                           ;MCAL_Layer/GPIO/hal_gpio.c: 25:     }
  3520   0012EE  EFF9  F009         	goto	l1551
  3521   0012F2                     l1543:
  3522                           
  3523                           ;MCAL_Layer/GPIO/hal_gpio.c: 29:                 (*tris_registers[_pin_config->port] &= 
      +                          ~((uint8) 1 << _pin_config->pin));
  3524   0012F2  C035  FFD9         	movff	gpio_pin_direction_intialize@_pin_config,fsr2l
  3525   0012F6  C036  FFDA         	movff	gpio_pin_direction_intialize@_pin_config+1,fsr2h
  3526   0012FA  30DF               	rrcf	223,w,c
  3527   0012FC  32E8               	rrcf	wreg,f,c
  3528   0012FE  32E8               	rrcf	wreg,f,c
  3529   001300  0B07               	andlw	7
  3530   001302  6E37               	movwf	??_gpio_pin_direction_intialize^0,c
  3531   001304  0E01               	movlw	1
  3532   001306  6E38               	movwf	(??_gpio_pin_direction_intialize+1)^0,c
  3533   001308  2A37               	incf	??_gpio_pin_direction_intialize^0,f,c
  3534   00130A  EF89  F009         	goto	u634
  3535   00130E                     u635:
  3536   00130E  90D8               	bcf	status,0,c
  3537   001310  3638               	rlcf	(??_gpio_pin_direction_intialize+1)^0,f,c
  3538   001312                     u634:
  3539   001312  2E37               	decfsz	??_gpio_pin_direction_intialize^0,f,c
  3540   001314  EF87  F009         	goto	u635
  3541   001318  5038               	movf	(??_gpio_pin_direction_intialize+1)^0,w,c
  3542   00131A  0AFF               	xorlw	255
  3543   00131C  6E39               	movwf	(??_gpio_pin_direction_intialize+2)^0,c
  3544   00131E  C035  FFD9         	movff	gpio_pin_direction_intialize@_pin_config,fsr2l
  3545   001322  C036  FFDA         	movff	gpio_pin_direction_intialize@_pin_config+1,fsr2h
  3546   001326  50DF               	movf	223,w,c
  3547   001328  0B07               	andlw	7
  3548   00132A  6E3A               	movwf	(??_gpio_pin_direction_intialize+3)^0,c
  3549   00132C  503A               	movf	(??_gpio_pin_direction_intialize+3)^0,w,c
  3550   00132E  0D02               	mullw	2
  3551   001330  0E15               	movlw	low _tris_registers
  3552   001332  24F3               	addwf	243,w,c
  3553   001334  6ED9               	movwf	fsr2l,c
  3554   001336  0E00               	movlw	high _tris_registers
  3555   001338  20F4               	addwfc	prodh,w,c
  3556   00133A  6EDA               	movwf	fsr2h,c
  3557   00133C  CFDE F03B          	movff	postinc2,??_gpio_pin_direction_intialize+4
  3558   001340  CFDD F03C          	movff	postdec2,??_gpio_pin_direction_intialize+5
  3559   001344  C03B  FFD9         	movff	??_gpio_pin_direction_intialize+4,fsr2l
  3560   001348  C03C  FFDA         	movff	??_gpio_pin_direction_intialize+5,fsr2h
  3561   00134C  5039               	movf	(??_gpio_pin_direction_intialize+2)^0,w,c
  3562   00134E  16DF               	andwf	indf2,f,c
  3563                           
  3564                           ;MCAL_Layer/GPIO/hal_gpio.c: 30:                 break;
  3565   001350  EFF9  F009         	goto	l1551
  3566   001354                     l1545:
  3567                           
  3568                           ;MCAL_Layer/GPIO/hal_gpio.c: 32:                 (*tris_registers[_pin_config->port] |= 
      +                          ((uint8) 1 << _pin_config->pin));
  3569   001354  C035  FFD9         	movff	gpio_pin_direction_intialize@_pin_config,fsr2l
  3570   001358  C036  FFDA         	movff	gpio_pin_direction_intialize@_pin_config+1,fsr2h
  3571   00135C  30DF               	rrcf	223,w,c
  3572   00135E  32E8               	rrcf	wreg,f,c
  3573   001360  32E8               	rrcf	wreg,f,c
  3574   001362  0B07               	andlw	7
  3575   001364  6E37               	movwf	??_gpio_pin_direction_intialize^0,c
  3576   001366  0E01               	movlw	1
  3577   001368  6E38               	movwf	(??_gpio_pin_direction_intialize+1)^0,c
  3578   00136A  2A37               	incf	??_gpio_pin_direction_intialize^0,f,c
  3579   00136C  EFBA  F009         	goto	u644
  3580   001370                     u645:
  3581   001370  90D8               	bcf	status,0,c
  3582   001372  3638               	rlcf	(??_gpio_pin_direction_intialize+1)^0,f,c
  3583   001374                     u644:
  3584   001374  2E37               	decfsz	??_gpio_pin_direction_intialize^0,f,c
  3585   001376  EFB8  F009         	goto	u645
  3586   00137A  C035  FFD9         	movff	gpio_pin_direction_intialize@_pin_config,fsr2l
  3587   00137E  C036  FFDA         	movff	gpio_pin_direction_intialize@_pin_config+1,fsr2h
  3588   001382  50DF               	movf	223,w,c
  3589   001384  0B07               	andlw	7
  3590   001386  6E39               	movwf	(??_gpio_pin_direction_intialize+2)^0,c
  3591   001388  5039               	movf	(??_gpio_pin_direction_intialize+2)^0,w,c
  3592   00138A  0D02               	mullw	2
  3593   00138C  0E15               	movlw	low _tris_registers
  3594   00138E  24F3               	addwf	243,w,c
  3595   001390  6ED9               	movwf	fsr2l,c
  3596   001392  0E00               	movlw	high _tris_registers
  3597   001394  20F4               	addwfc	prodh,w,c
  3598   001396  6EDA               	movwf	fsr2h,c
  3599   001398  CFDE F03A          	movff	postinc2,??_gpio_pin_direction_intialize+3
  3600   00139C  CFDD F03B          	movff	postdec2,??_gpio_pin_direction_intialize+4
  3601   0013A0  C03A  FFD9         	movff	??_gpio_pin_direction_intialize+3,fsr2l
  3602   0013A4  C03B  FFDA         	movff	??_gpio_pin_direction_intialize+4,fsr2h
  3603   0013A8  5038               	movf	(??_gpio_pin_direction_intialize+1)^0,w,c
  3604   0013AA  12DF               	iorwf	indf2,f,c
  3605                           
  3606                           ;MCAL_Layer/GPIO/hal_gpio.c: 33:                 break;
  3607   0013AC  EFF9  F009         	goto	l1551
  3608   0013B0                     l1549:
  3609   0013B0  C035  FFD9         	movff	gpio_pin_direction_intialize@_pin_config,fsr2l
  3610   0013B4  C036  FFDA         	movff	gpio_pin_direction_intialize@_pin_config+1,fsr2h
  3611   0013B8  BCDF               	btfsc	indf2,6,c
  3612   0013BA  EFE1  F009         	goto	u651
  3613   0013BE  EFE4  F009         	goto	u650
  3614   0013C2                     u651:
  3615   0013C2  0E01               	movlw	1
  3616   0013C4  EFE5  F009         	goto	u660
  3617   0013C8                     u650:
  3618   0013C8  0E00               	movlw	0
  3619   0013CA                     u660:
  3620   0013CA  6E37               	movwf	??_gpio_pin_direction_intialize^0,c
  3621   0013CC  6A38               	clrf	(??_gpio_pin_direction_intialize+1)^0,c
  3622                           
  3623                           ; Switch on 2 bytes has been partitioned into a top level switch of size 1, and 1 sub-sw
      +                          itches
  3624                           ; Switch size 1, requested type "simple"
  3625                           ; Number of cases is 1, Range of values is 0 to 0
  3626                           ; switch strategies available:
  3627                           ; Name         Instructions Cycles
  3628                           ; simple_byte            4     3 (average)
  3629                           ;	Chosen strategy is simple_byte
  3630   0013CE  5038               	movf	(??_gpio_pin_direction_intialize+1)^0,w,c
  3631   0013D0  0A00               	xorlw	0	; case 0
  3632   0013D2  B4D8               	btfsc	status,2,c
  3633   0013D4  EFEE  F009         	goto	l2057
  3634   0013D8  EF75  F009         	goto	l1541
  3635   0013DC                     l2057:
  3636                           
  3637                           ; Switch size 1, requested type "simple"
  3638                           ; Number of cases is 2, Range of values is 0 to 1
  3639                           ; switch strategies available:
  3640                           ; Name         Instructions Cycles
  3641                           ; simple_byte            7     4 (average)
  3642                           ;	Chosen strategy is simple_byte
  3643   0013DC  5037               	movf	??_gpio_pin_direction_intialize^0,w,c
  3644   0013DE  0A00               	xorlw	0	; case 0
  3645   0013E0  B4D8               	btfsc	status,2,c
  3646   0013E2  EF79  F009         	goto	l1543
  3647   0013E6  0A01               	xorlw	1	; case 1
  3648   0013E8  B4D8               	btfsc	status,2,c
  3649   0013EA  EFAA  F009         	goto	l1545
  3650   0013EE  EF75  F009         	goto	l1541
  3651   0013F2                     l1551:
  3652                           
  3653                           ;MCAL_Layer/GPIO/hal_gpio.c: 37:     return ret;
  3654   0013F2  503D               	movf	gpio_pin_direction_intialize@ret^0,w,c
  3655   0013F4  0012               	return		;funcret
  3656   0013F6                     __end_of_gpio_pin_direction_intialize:
  3657                           	callstack 0
  3658                           
  3659 ;; *************** function ___lmul *****************
  3660 ;; Defined at:
  3661 ;;		line 15 in file "C:\Program Files\Microchip\xc8\v2.40\pic\sources\c99\common\Umul32.c"
  3662 ;; Parameters:    Size  Location     Type
  3663 ;;  multiplier      4    0[COMRAM] unsigned long 
  3664 ;;  multiplicand    4    4[COMRAM] unsigned long 
  3665 ;; Auto vars:     Size  Location     Type
  3666 ;;  product         4    8[COMRAM] unsigned long 
  3667 ;; Return value:  Size  Location     Type
  3668 ;;                  4    0[COMRAM] unsigned long 
  3669 ;; Registers used:
  3670 ;;		wreg, status,2, status,0
  3671 ;; Tracked objects:
  3672 ;;		On entry : 0/0
  3673 ;;		On exit  : 0/0
  3674 ;;		Unchanged: 0/0
  3675 ;; Data sizes:     COMRAM   BANK0   BANK1   BANK2   BANK3   BANK4   BANK5   BANK6   BANK7   BANK8   BANK9  BANK10  BANK1
      +1  BANK12  BANK13  BANK14  BANK15
  3676 ;;      Params:         8       0       0       0       0       0       0       0       0       0       0       0       
      +0       0       0       0       0
  3677 ;;      Locals:         4       0       0       0       0       0       0       0       0       0       0       0       
      +0       0       0       0       0
  3678 ;;      Temps:          0       0       0       0       0       0       0       0       0       0       0       0       
      +0       0       0       0       0
  3679 ;;      Totals:        12       0       0       0       0       0       0       0       0       0       0       0       
      +0       0       0       0       0
  3680 ;;Total ram usage:       12 bytes
  3681 ;; Hardware stack levels used: 1
  3682 ;; This function calls:
  3683 ;;		Nothing
  3684 ;; This function is called by:
  3685 ;;		_main
  3686 ;; This function uses a non-reentrant model
  3687 ;;
  3688                           
  3689                           	psect	text25
  3690   001B6A                     __ptext25:
  3691                           	callstack 0
  3692   001B6A                     ___lmul:
  3693                           	callstack 30
  3694   001B6A  0E00               	movlw	0
  3695   001B6C  6E3D               	movwf	___lmul@product^0,c
  3696   001B6E  0E00               	movlw	0
  3697   001B70  6E3E               	movwf	(___lmul@product+1)^0,c
  3698   001B72  0E00               	movlw	0
  3699   001B74  6E3F               	movwf	(___lmul@product+2)^0,c
  3700   001B76  0E00               	movlw	0
  3701   001B78  6E40               	movwf	(___lmul@product+3)^0,c
  3702   001B7A                     l1979:
  3703   001B7A  A035               	btfss	___lmul@multiplier^0,0,c
  3704   001B7C  EFC2  F00D         	goto	u1071
  3705   001B80  EFC4  F00D         	goto	u1070
  3706   001B84                     u1071:
  3707   001B84  EFCC  F00D         	goto	l1983
  3708   001B88                     u1070:
  3709   001B88  5039               	movf	___lmul@multiplicand^0,w,c
  3710   001B8A  263D               	addwf	___lmul@product^0,f,c
  3711   001B8C  503A               	movf	(___lmul@multiplicand+1)^0,w,c
  3712   001B8E  223E               	addwfc	(___lmul@product+1)^0,f,c
  3713   001B90  503B               	movf	(___lmul@multiplicand+2)^0,w,c
  3714   001B92  223F               	addwfc	(___lmul@product+2)^0,f,c
  3715   001B94  503C               	movf	(___lmul@multiplicand+3)^0,w,c
  3716   001B96  2240               	addwfc	(___lmul@product+3)^0,f,c
  3717   001B98                     l1983:
  3718   001B98  90D8               	bcf	status,0,c
  3719   001B9A  3639               	rlcf	___lmul@multiplicand^0,f,c
  3720   001B9C  363A               	rlcf	(___lmul@multiplicand+1)^0,f,c
  3721   001B9E  363B               	rlcf	(___lmul@multiplicand+2)^0,f,c
  3722   001BA0  363C               	rlcf	(___lmul@multiplicand+3)^0,f,c
  3723   001BA2  90D8               	bcf	status,0,c
  3724   001BA4  3238               	rrcf	(___lmul@multiplier+3)^0,f,c
  3725   001BA6  3237               	rrcf	(___lmul@multiplier+2)^0,f,c
  3726   001BA8  3236               	rrcf	(___lmul@multiplier+1)^0,f,c
  3727   001BAA  3235               	rrcf	___lmul@multiplier^0,f,c
  3728   001BAC  5035               	movf	___lmul@multiplier^0,w,c
  3729   001BAE  1036               	iorwf	(___lmul@multiplier+1)^0,w,c
  3730   001BB0  1037               	iorwf	(___lmul@multiplier+2)^0,w,c
  3731   001BB2  1038               	iorwf	(___lmul@multiplier+3)^0,w,c
  3732   001BB4  A4D8               	btfss	status,2,c
  3733   001BB6  EFDF  F00D         	goto	u1081
  3734   001BBA  EFE1  F00D         	goto	u1080
  3735   001BBE                     u1081:
  3736   001BBE  EFBD  F00D         	goto	l1979
  3737   001BC2                     u1080:
  3738   001BC2  C03D  F035         	movff	___lmul@product,?___lmul
  3739   001BC6  C03E  F036         	movff	___lmul@product+1,?___lmul+1
  3740   001BCA  C03F  F037         	movff	___lmul@product+2,?___lmul+2
  3741   001BCE  C040  F038         	movff	___lmul@product+3,?___lmul+3
  3742   001BD2  0012               	return		;funcret
  3743   001BD4                     __end_of___lmul:
  3744                           	callstack 0
  3745                           
  3746                           	psect	rparam
  3747   000000                     
  3748                           	psect	idloc
  3749                           
  3750                           ;Config register IDLOC0 @ 0x200000
  3751                           ;	unspecified, using default values
  3752   200000                     	org	2097152
  3753   200000  FF                 	db	255
  3754                           
  3755                           ;Config register IDLOC1 @ 0x200001
  3756                           ;	unspecified, using default values
  3757   200001                     	org	2097153
  3758   200001  FF                 	db	255
  3759                           
  3760                           ;Config register IDLOC2 @ 0x200002
  3761                           ;	unspecified, using default values
  3762   200002                     	org	2097154
  3763   200002  FF                 	db	255
  3764                           
  3765                           ;Config register IDLOC3 @ 0x200003
  3766                           ;	unspecified, using default values
  3767   200003                     	org	2097155
  3768   200003  FF                 	db	255
  3769                           
  3770                           ;Config register IDLOC4 @ 0x200004
  3771                           ;	unspecified, using default values
  3772   200004                     	org	2097156
  3773   200004  FF                 	db	255
  3774                           
  3775                           ;Config register IDLOC5 @ 0x200005
  3776                           ;	unspecified, using default values
  3777   200005                     	org	2097157
  3778   200005  FF                 	db	255
  3779                           
  3780                           ;Config register IDLOC6 @ 0x200006
  3781                           ;	unspecified, using default values
  3782   200006                     	org	2097158
  3783   200006  FF                 	db	255
  3784                           
  3785                           ;Config register IDLOC7 @ 0x200007
  3786                           ;	unspecified, using default values
  3787   200007                     	org	2097159
  3788   200007  FF                 	db	255
  3789                           
  3790                           	psect	config
  3791                           
  3792                           ; Padding undefined space
  3793   300000                     	org	3145728
  3794   300000  FF                 	db	255
  3795                           
  3796                           ;Config register CONFIG1H @ 0x300001
  3797                           ;	unspecified, using default values
  3798                           ;	Oscillator Selection bits
  3799                           ;	OSC = 0x7, unprogrammed default
  3800                           ;	Fail-Safe Clock Monitor Enable bit
  3801                           ;	FCMEN = 0x0, unprogrammed default
  3802                           ;	Internal/External Oscillator Switchover bit
  3803                           ;	IESO = 0x0, unprogrammed default
  3804   300001                     	org	3145729
  3805   300001  07                 	db	7
  3806                           
  3807                           ;Config register CONFIG2L @ 0x300002
  3808                           ;	unspecified, using default values
  3809                           ;	Power-up Timer Enable bit
  3810                           ;	PWRT = 0x1, unprogrammed default
  3811                           ;	Brown-out Reset Enable bits
  3812                           ;	BOREN = 0x3, unprogrammed default
  3813                           ;	Brown Out Reset Voltage bits
  3814                           ;	BORV = 0x3, unprogrammed default
  3815   300002                     	org	3145730
  3816   300002  1F                 	db	31
  3817                           
  3818                           ;Config register CONFIG2H @ 0x300003
  3819                           ;	unspecified, using default values
  3820                           ;	Watchdog Timer Enable bit
  3821                           ;	WDT = 0x1, unprogrammed default
  3822                           ;	Watchdog Timer Postscale Select bits
  3823                           ;	WDTPS = 0xF, unprogrammed default
  3824   300003                     	org	3145731
  3825   300003  1F                 	db	31
  3826                           
  3827                           ; Padding undefined space
  3828   300004                     	org	3145732
  3829   300004  FF                 	db	255
  3830                           
  3831                           ;Config register CONFIG3H @ 0x300005
  3832                           ;	unspecified, using default values
  3833                           ;	CCP2 MUX bit
  3834                           ;	CCP2MX = 0x1, unprogrammed default
  3835                           ;	PORTB A/D Enable bit
  3836                           ;	PBADEN = 0x1, unprogrammed default
  3837                           ;	Low-Power Timer1 Oscillator Enable bit
  3838                           ;	LPT1OSC = 0x0, unprogrammed default
  3839                           ;	MCLR Pin Enable bit
  3840                           ;	MCLRE = 0x1, unprogrammed default
  3841   300005                     	org	3145733
  3842   300005  83                 	db	131
  3843                           
  3844                           ;Config register CONFIG4L @ 0x300006
  3845                           ;	unspecified, using default values
  3846                           ;	Stack Full/Underflow Reset Enable bit
  3847                           ;	STVREN = 0x1, unprogrammed default
  3848                           ;	Single-Supply ICSP Enable bit
  3849                           ;	LVP = 0x1, unprogrammed default
  3850                           ;	Extended Instruction Set Enable bit
  3851                           ;	XINST = 0x0, unprogrammed default
  3852                           ;	Background Debugger Enable bit
  3853                           ;	DEBUG = 0x1, unprogrammed default
  3854   300006                     	org	3145734
  3855   300006  85                 	db	133
  3856                           
  3857                           ; Padding undefined space
  3858   300007                     	org	3145735
  3859   300007  FF                 	db	255
  3860                           
  3861                           ;Config register CONFIG5L @ 0x300008
  3862                           ;	unspecified, using default values
  3863                           ;	Code Protection bit
  3864                           ;	CP0 = 0x1, unprogrammed default
  3865                           ;	Code Protection bit
  3866                           ;	CP1 = 0x1, unprogrammed default
  3867                           ;	Code Protection bit
  3868                           ;	CP2 = 0x1, unprogrammed default
  3869                           ;	Code Protection bit
  3870                           ;	CP3 = 0x1, unprogrammed default
  3871   300008                     	org	3145736
  3872   300008  0F                 	db	15
  3873                           
  3874                           ;Config register CONFIG5H @ 0x300009
  3875                           ;	unspecified, using default values
  3876                           ;	Boot Block Code Protection bit
  3877                           ;	CPB = 0x1, unprogrammed default
  3878                           ;	Data EEPROM Code Protection bit
  3879                           ;	CPD = 0x1, unprogrammed default
  3880   300009                     	org	3145737
  3881   300009  C0                 	db	192
  3882                           
  3883                           ;Config register CONFIG6L @ 0x30000A
  3884                           ;	unspecified, using default values
  3885                           ;	Write Protection bit
  3886                           ;	WRT0 = 0x1, unprogrammed default
  3887                           ;	Write Protection bit
  3888                           ;	WRT1 = 0x1, unprogrammed default
  3889                           ;	Write Protection bit
  3890                           ;	WRT2 = 0x1, unprogrammed default
  3891                           ;	Write Protection bit
  3892                           ;	WRT3 = 0x1, unprogrammed default
  3893   30000A                     	org	3145738
  3894   30000A  0F                 	db	15
  3895                           
  3896                           ;Config register CONFIG6H @ 0x30000B
  3897                           ;	unspecified, using default values
  3898                           ;	Configuration Register Write Protection bit
  3899                           ;	WRTC = 0x1, unprogrammed default
  3900                           ;	Boot Block Write Protection bit
  3901                           ;	WRTB = 0x1, unprogrammed default
  3902                           ;	Data EEPROM Write Protection bit
  3903                           ;	WRTD = 0x1, unprogrammed default
  3904   30000B                     	org	3145739
  3905   30000B  E0                 	db	224
  3906                           
  3907                           ;Config register CONFIG7L @ 0x30000C
  3908                           ;	unspecified, using default values
  3909                           ;	Table Read Protection bit
  3910                           ;	EBTR0 = 0x1, unprogrammed default
  3911                           ;	Table Read Protection bit
  3912                           ;	EBTR1 = 0x1, unprogrammed default
  3913                           ;	Table Read Protection bit
  3914                           ;	EBTR2 = 0x1, unprogrammed default
  3915                           ;	Table Read Protection bit
  3916                           ;	EBTR3 = 0x1, unprogrammed default
  3917   30000C                     	org	3145740
  3918   30000C  0F                 	db	15
  3919                           
  3920                           ;Config register CONFIG7H @ 0x30000D
  3921                           ;	unspecified, using default values
  3922                           ;	Boot Block Table Read Protection bit
  3923                           ;	EBTRB = 0x1, unprogrammed default
  3924   30000D                     	org	3145741
  3925   30000D  40                 	db	64
  3926                           tosu	equ	0xFFF
  3927                           tosh	equ	0xFFE
  3928                           tosl	equ	0xFFD
  3929                           stkptr	equ	0xFFC
  3930                           pclatu	equ	0xFFB
  3931                           pclath	equ	0xFFA
  3932                           pcl	equ	0xFF9
  3933                           tblptru	equ	0xFF8
  3934                           tblptrh	equ	0xFF7
  3935                           tblptrl	equ	0xFF6
  3936                           tablat	equ	0xFF5
  3937                           prodh	equ	0xFF4
  3938                           prodl	equ	0xFF3
  3939                           indf0	equ	0xFEF
  3940                           postinc0	equ	0xFEE
  3941                           postdec0	equ	0xFED
  3942                           preinc0	equ	0xFEC
  3943                           plusw0	equ	0xFEB
  3944                           fsr0h	equ	0xFEA
  3945                           fsr0l	equ	0xFE9
  3946                           wreg	equ	0xFE8
  3947                           indf1	equ	0xFE7
  3948                           postinc1	equ	0xFE6
  3949                           postdec1	equ	0xFE5
  3950                           preinc1	equ	0xFE4
  3951                           plusw1	equ	0xFE3
  3952                           fsr1h	equ	0xFE2
  3953                           fsr1l	equ	0xFE1
  3954                           bsr	equ	0xFE0
  3955                           indf2	equ	0xFDF
  3956                           postinc2	equ	0xFDE
  3957                           postdec2	equ	0xFDD
  3958                           preinc2	equ	0xFDC
  3959                           plusw2	equ	0xFDB
  3960                           fsr2h	equ	0xFDA
  3961                           fsr2l	equ	0xFD9
  3962                           status	equ	0xFD8

Data Sizes:
    Strings     63
    Constant    12
    Data        52
    BSS         9
    Persistent  1
    Stack       0

Auto Spaces:
    Space          Size  Autos    Used
    COMRAM          127     39     101
    BANK0           128      0       0
    BANK1           256      0       0
    BANK2           256      0       0
    BANK3           256      0       0
    BANK4           256      0       0
    BANK5           256      0       0
    BANK6           256      0       0
    BANK7           256      0       0
    BANK8           256      0       0
    BANK9           256      0       0
    BANK10          256      0       0
    BANK11          256      0       0
    BANK12          256      0       0
    BANK13          256      0       0
    BANK14          256      0       0
    BANK15          128      0       0

Pointer List with Targets:

    gpio_pin_intialize@_pin_config	PTR const struct . size(2) Largest target is 7
		 -> lcd.data_lines(COMRAM[4]), lcd(COMRAM[6]), keypad.keypad_rows_pins(COMRAM[4]), keypad(COMRAM[7]), 
		 -> motor.motor_pin(COMRAM[2]), motor(COMRAM[2]), led_intialiaze@pin_config_obj(COMRAM[1]), 

    gpio_pin_read_logic@logic	PTR enum E2965 size(2) Largest target is 1
		 -> keypad_get_value@logic(COMRAM[1]), 

    gpio_pin_read_logic@_pin_config	PTR const struct . size(2) Largest target is 7
		 -> keypad.keypad_coloumns_pins(COMRAM[3]), keypad(COMRAM[7]), 

    gpio_pin_write_logic@_pin_config	PTR const struct . size(2) Largest target is 7
		 -> lcd.data_lines(COMRAM[4]), lcd(COMRAM[6]), keypad.keypad_rows_pins(COMRAM[4]), keypad(COMRAM[7]), 
		 -> motor.motor_pin(COMRAM[2]), motor(COMRAM[2]), led_turn_off@pin_config_obj(COMRAM[1]), led_turn_on@pin_config_obj(COMRAM[1]), 
		 -> led_intialiaze@pin_config_obj(COMRAM[1]), 

    gpio_pin_direction_intialize@_pin_config	PTR const struct . size(2) Largest target is 7
		 -> lcd.data_lines(COMRAM[4]), lcd(COMRAM[6]), keypad.keypad_coloumns_pins(COMRAM[3]), keypad.keypad_rows_pins(COMRAM[4]), 
		 -> keypad(COMRAM[7]), motor.motor_pin(COMRAM[2]), motor(COMRAM[2]), led_intialiaze@pin_config_obj(COMRAM[1]), 

    lat_registers	PTR volatile unsigned char [5] size(2) Largest target is 1
		 -> LATE(BITBIGSFRlh[1]), LATD(BITBIGSFRlh[1]), LATC(BITBIGSFRlh[1]), LATB(BITBIGSFRlh[1]), 
		 -> LATA(BITBIGSFRll[1]), 

    port_registers	PTR volatile unsigned char [5] size(2) Largest target is 1
		 -> PORTE(BITBIGSFRll[1]), PORTD(BITBIGSFRll[1]), PORTC(BITBIGSFRll[1]), PORTB(BITBIGSFRll[1]), 
		 -> PORTA(BITBIGSFRll[1]), 

    tris_registers	PTR volatile unsigned char [5] size(2) Largest target is 1
		 -> TRISE(BITBIGSFRh[1]), TRISD(BITBIGSFRh[1]), TRISC(BITBIGSFRh[1]), TRISB(BITBIGSFRh[1]), 
		 -> TRISA(BITBIGSFRll[1]), 

    led_turn_off@led	PTR const struct . size(2) Largest target is 1
		 -> led_opened(COMRAM[1]), led_locked(COMRAM[1]), 

    led_turn_on@led	PTR const struct . size(2) Largest target is 1
		 -> led_opened(COMRAM[1]), led_locked(COMRAM[1]), 

    led_intialiaze@led	PTR const struct . size(2) Largest target is 1
		 -> led_opened(COMRAM[1]), led_locked(COMRAM[1]), 

    lcd_4bit_set_cursor@lcd	PTR const struct . size(2) Largest target is 6
		 -> lcd(COMRAM[6]), 

    send_4bit_enable_signal@lcd	PTR const struct . size(2) Largest target is 6
		 -> lcd(COMRAM[6]), 

    lcd_send_4bit@lcd	PTR const struct . size(2) Largest target is 6
		 -> lcd(COMRAM[6]), 

    lcd_4bit_send_string_pos@string	PTR unsigned char  size(2) Largest target is 20
		 -> STR_4(CODE[18]), STR_3(CODE[20]), STR_2(CODE[9]), 

    lcd_4bit_send_string_pos@lcd	PTR const struct . size(2) Largest target is 6
		 -> lcd(COMRAM[6]), 

    lcd_4bit_send_string@string	PTR unsigned char  size(2) Largest target is 20
		 -> STR_5(CODE[16]), STR_4(CODE[18]), STR_3(CODE[20]), STR_2(CODE[9]), 
		 -> STR_1(CODE[16]), 

    lcd_4bit_send_string@lcd	PTR const struct . size(2) Largest target is 6
		 -> lcd(COMRAM[6]), 

    lcd_4bit_send_char_pos@lcd	PTR const struct . size(2) Largest target is 6
		 -> lcd(COMRAM[6]), 

    lcd_4bit_send_char@lcd	PTR const struct . size(2) Largest target is 6
		 -> lcd(COMRAM[6]), 

    lcd_4bit_send_command@lcd	PTR const struct . size(2) Largest target is 6
		 -> lcd(COMRAM[6]), 

    lcd_4bit_intialize@lcd	PTR const struct . size(2) Largest target is 6
		 -> lcd(COMRAM[6]), 

    keypad_get_value@value	PTR unsigned char  size(2) Largest target is 1
		 -> keypad_read_value@new_value(COMRAM[1]), keypad_read_value@current_value(COMRAM[1]), 

    keypad_get_value@keypad	PTR const struct . size(2) Largest target is 7
		 -> keypad(COMRAM[7]), 

    keypad_intialize@keypad	PTR const struct . size(2) Largest target is 7
		 -> keypad(COMRAM[7]), 

    motor_stop@motor	PTR const struct . size(2) Largest target is 2
		 -> motor(COMRAM[2]), 

    motor_move_right@motor	PTR const struct . size(2) Largest target is 2
		 -> motor(COMRAM[2]), 

    motor_intialize@motor	PTR const struct . size(2) Largest target is 2
		 -> motor(COMRAM[2]), 


Critical Paths under _main in COMRAM

    _main->_lcd_4bit_send_string_pos
    _motor_stop->_gpio_pin_write_logic
    _motor_move_right->_gpio_pin_write_logic
    _led_turn_on->_gpio_pin_write_logic
    _led_turn_off->_gpio_pin_write_logic
    _lcd_4bit_send_string_pos->_lcd_4bit_set_cursor
    _lcd_4bit_send_string->_lcd_4bit_send_char
    _lcd_4bit_send_char_pos->_lcd_4bit_set_cursor
    _lcd_4bit_set_cursor->_lcd_4bit_send_command
    _lcd_4bit_send_char->_lcd_send_4bit
    _keypad_read_value->_keypad_get_value
    _keypad_get_value->_gpio_pin_read_logic
    _keypad_get_value->_gpio_pin_write_logic
    _application_intialize->_ecu_layer_intialize
    _ecu_layer_intialize->_lcd_4bit_intialize
    _motor_intialize->_gpio_pin_intialize
    _led_intialiaze->_gpio_pin_intialize
    _lcd_4bit_intialize->_lcd_4bit_send_command
    _lcd_4bit_send_command->_lcd_send_4bit
    _send_4bit_enable_signal->_gpio_pin_write_logic
    _lcd_send_4bit->_gpio_pin_write_logic
    _keypad_intialize->_gpio_pin_intialize
    _gpio_pin_intialize->_gpio_pin_write_logic

Critical Paths under _main in BANK0

    None.

Critical Paths under _main in BANK1

    None.

Critical Paths under _main in BANK2

    None.

Critical Paths under _main in BANK3

    None.

Critical Paths under _main in BANK4

    None.

Critical Paths under _main in BANK5

    None.

Critical Paths under _main in BANK6

    None.

Critical Paths under _main in BANK7

    None.

Critical Paths under _main in BANK8

    None.

Critical Paths under _main in BANK9

    None.

Critical Paths under _main in BANK10

    None.

Critical Paths under _main in BANK11

    None.

Critical Paths under _main in BANK12

    None.

Critical Paths under _main in BANK13

    None.

Critical Paths under _main in BANK14

    None.

Critical Paths under _main in BANK15

    None.

Call Graph Tables:

 ---------------------------------------------------------------------------------
 (Depth) Function   	        Calls       Base Space   Used Autos Params    Refs
 ---------------------------------------------------------------------------------
 (0) _main                                                 2     2      0  101313
                                             37 COMRAM     2     2      0
                             ___lmul
              _application_intialize
                  _keypad_read_value
             _lcd_4bit_send_char_pos
              _lcd_4bit_send_command
               _lcd_4bit_send_string
           _lcd_4bit_send_string_pos
                       _led_turn_off
                        _led_turn_on
                   _motor_move_right
                         _motor_stop
 ---------------------------------------------------------------------------------
 (1) _motor_stop                                           3     1      2    2475
                                             10 COMRAM     3     1      2
               _gpio_pin_write_logic
 ---------------------------------------------------------------------------------
 (1) _motor_move_right                                     3     1      2    2475
                                             10 COMRAM     3     1      2
               _gpio_pin_write_logic
 ---------------------------------------------------------------------------------
 (1) _led_turn_on                                          5     3      2    2604
                                             10 COMRAM     5     3      2
               _gpio_pin_write_logic
 ---------------------------------------------------------------------------------
 (1) _led_turn_off                                         5     3      2    2604
                                             10 COMRAM     5     3      2
               _gpio_pin_write_logic
 ---------------------------------------------------------------------------------
 (1) _lcd_4bit_send_string_pos                             7     1      6   21502
                                             30 COMRAM     7     1      6
               _lcd_4bit_send_string
                _lcd_4bit_set_cursor
 ---------------------------------------------------------------------------------
 (2) _lcd_4bit_send_string                                 5     1      4    9183
                                             23 COMRAM     5     1      4
                 _lcd_4bit_send_char
 ---------------------------------------------------------------------------------
 (1) _lcd_4bit_send_char_pos                               6     1      5   20630
                                             30 COMRAM     6     1      5
                 _lcd_4bit_send_char
                _lcd_4bit_set_cursor
 ---------------------------------------------------------------------------------
 (2) _lcd_4bit_set_cursor                                  7     3      4   11249
                                             23 COMRAM     7     3      4
              _lcd_4bit_send_command
 ---------------------------------------------------------------------------------
 (3) _lcd_4bit_send_char                                   4     1      3    8615
                                             19 COMRAM     4     1      3
               _gpio_pin_write_logic
                      _lcd_send_4bit
            _send_4bit_enable_signal
 ---------------------------------------------------------------------------------
 (1) _keypad_read_value                                    3     3      0    3462
                                             20 COMRAM     3     3      0
                   _keypad_get_value
 ---------------------------------------------------------------------------------
 (2) _keypad_get_value                                    10     6      4    3326
                                             10 COMRAM    10     6      4
                _gpio_pin_read_logic
               _gpio_pin_write_logic
 ---------------------------------------------------------------------------------
 (3) _gpio_pin_read_logic                                 10     6      4     308
                                              0 COMRAM    10     6      4
 ---------------------------------------------------------------------------------
 (1) _application_intialize                                0     0      0   25417
                _ecu_layer_intialize
 ---------------------------------------------------------------------------------
 (2) _ecu_layer_intialize                                  1     1      0   25417
                                             29 COMRAM     1     1      0
                   _keypad_intialize
                 _lcd_4bit_intialize
                     _led_intialiaze
                    _motor_intialize
 ---------------------------------------------------------------------------------
 (3) _motor_intialize                                      3     1      2    3474
                                             14 COMRAM     3     1      2
                 _gpio_pin_intialize
 ---------------------------------------------------------------------------------
 (3) _led_intialiaze                                       5     3      2    3611
                                             14 COMRAM     5     3      2
                 _gpio_pin_intialize
 ---------------------------------------------------------------------------------
 (3) _lcd_4bit_intialize                                   6     4      2   14363
                                             23 COMRAM     6     4      2
                 _gpio_pin_intialize
              _lcd_4bit_send_command
 ---------------------------------------------------------------------------------
 (3) _lcd_4bit_send_command                                4     1      3   10591
                                             19 COMRAM     4     1      3
               _gpio_pin_write_logic
                      _lcd_send_4bit
            _send_4bit_enable_signal
 ---------------------------------------------------------------------------------
 (4) _send_4bit_enable_signal                              3     1      2    2703
                                             10 COMRAM     3     1      2
               _gpio_pin_write_logic
 ---------------------------------------------------------------------------------
 (4) _lcd_send_4bit                                        9     6      3    3096
                                             10 COMRAM     9     6      3
               _gpio_pin_write_logic
 ---------------------------------------------------------------------------------
 (3) _keypad_intialize                                     9     7      2    3941
                                             14 COMRAM     9     7      2
       _gpio_pin_direction_intialize
                 _gpio_pin_intialize
 ---------------------------------------------------------------------------------
 (4) _gpio_pin_intialize                                   4     2      2    3306
                                             10 COMRAM     4     2      2
       _gpio_pin_direction_intialize
               _gpio_pin_write_logic
 ---------------------------------------------------------------------------------
 (2) _gpio_pin_write_logic                                10     7      3    2307
                                              0 COMRAM    10     7      3
 ---------------------------------------------------------------------------------
 (5) _gpio_pin_direction_intialize                         9     7      2     331
                                              0 COMRAM     9     7      2
 ---------------------------------------------------------------------------------
 (1) ___lmul                                              12     4      8     370
                                              0 COMRAM    12     4      8
 ---------------------------------------------------------------------------------
 Estimated maximum stack depth 5
 ---------------------------------------------------------------------------------

 Call Graph Graphs:

 _main (ROOT)
   ___lmul
   _application_intialize
     _ecu_layer_intialize
       _keypad_intialize
         _gpio_pin_direction_intialize
         _gpio_pin_intialize
           _gpio_pin_direction_intialize
           _gpio_pin_write_logic
       _lcd_4bit_intialize
         _gpio_pin_intialize
         _lcd_4bit_send_command
           _gpio_pin_write_logic
           _lcd_send_4bit
             _gpio_pin_write_logic
           _send_4bit_enable_signal
             _gpio_pin_write_logic
       _led_intialiaze
         _gpio_pin_intialize
       _motor_intialize
         _gpio_pin_intialize
   _keypad_read_value
     _keypad_get_value
       _gpio_pin_read_logic
       _gpio_pin_write_logic
   _lcd_4bit_send_char_pos
     _lcd_4bit_send_char
       _gpio_pin_write_logic
       _lcd_send_4bit
       _send_4bit_enable_signal
     _lcd_4bit_set_cursor
       _lcd_4bit_send_command
   _lcd_4bit_send_command
   _lcd_4bit_send_string
     _lcd_4bit_send_char
   _lcd_4bit_send_string_pos
     _lcd_4bit_send_string
     _lcd_4bit_set_cursor
   _led_turn_off
     _gpio_pin_write_logic
   _led_turn_on
     _gpio_pin_write_logic
   _motor_move_right
     _gpio_pin_write_logic
   _motor_stop
     _gpio_pin_write_logic

 Address spaces:
Name               Size   Autos  Total    Cost      Usage
BIGRAM             F7F      0       0      40        0.0%
EEDATA             400      0       0       0        0.0%
BITBANK14          100      0       0      32        0.0%
BANK14             100      0       0      33        0.0%
BITBANK13          100      0       0      30        0.0%
BANK13             100      0       0      31        0.0%
BITBANK12          100      0       0      28        0.0%
BANK12             100      0       0      29        0.0%
BITBANK11          100      0       0      26        0.0%
BANK11             100      0       0      27        0.0%
BITBANK10          100      0       0      24        0.0%
BANK10             100      0       0      25        0.0%
BITBANK9           100      0       0      22        0.0%
BANK9              100      0       0      23        0.0%
BITBANK8           100      0       0      20        0.0%
BANK8              100      0       0      21        0.0%
BITBANK7           100      0       0      18        0.0%
BANK7              100      0       0      19        0.0%
BITBANK6           100      0       0      16        0.0%
BANK6              100      0       0      17        0.0%
BITBANK5           100      0       0      14        0.0%
BANK5              100      0       0      15        0.0%
BITBANK4           100      0       0      12        0.0%
BANK4              100      0       0      13        0.0%
BITBANK3           100      0       0      10        0.0%
BANK3              100      0       0      11        0.0%
BITBANK2           100      0       0       8        0.0%
BANK2              100      0       0       9        0.0%
BITBANK1           100      0       0       6        0.0%
BANK1              100      0       0       7        0.0%
BITBANK15           80      0       0      34        0.0%
BANK15              80      0       0      35        0.0%
BITBANK0            80      0       0       4        0.0%
BANK0               80      0       0       5        0.0%
BITCOMRAM           7F      0       0       0        0.0%
COMRAM              7F     27      65       1       79.5%
BITBIGSFRh          69      0       0      36        0.0%
BITBIGSFRlh          4      0       0      37        0.0%
BITBIGSFRll          4      0       0      38        0.0%
BIGSFR               0      0       0     200        0.0%
BITSFR               0      0       0     200        0.0%
SFR                  0      0       0     200        0.0%
STACK                0      0       0       2        0.0%
NULL                 0      0       0       0        0.0%
ABS                  0      0      65      39        0.0%
DATA                 0      0      65       3        0.0%
CODE                 0      0       0       0        0.0%


Microchip Technology PIC18 Macro Assembler V2.40 build 20220703182018 
Symbol Table                                                                                   Wed Jul 26 13:58:43 2023

                         ?_lcd_send_4bit 003F                           _led_intialiaze 1A14  
                                      l7 1F24                                        l8 1F26  
                                     l11 1EAC                                       l12 1EAE  
                                     l15 1E6C                                       l16 1E6E  
                                     l34 190E                                       l43 1724  
                                     l63 1640                                       l71 1CA0  
                                     l81 1D5E                                       l74 1EEC  
                                     l91 1AFC                                       l67 1D06  
                                     l75 1EEE                                       l85 1DEC  
                                     l94 1DA6                                       l95 1DA8  
                    _lcd_output_data_col 0023                                      l111 1A2E  
                                    l104 1876                                      l210 1520  
                                    l122 1990                                      l115 1A90  
                                    l125 19AC                                      l150 1E2E  
                                    l118 192A                                      l224 1B68  
                                    l217 17DC                                      l129 1A12  
                                    l307 1BC2                                      l308 1BD2  
                                    l292 1C3A                                      l198 13F4  
                                    l288 1F98               send_4bit_enable_signal@lcd 003F  
                                    u610 12C8                                      u611 12C4  
                                    u620 12EA                                      u604 14B8  
                                    u700 1D76               send_4bit_enable_signal@ret 0041  
                                    u621 12E6                                      u605 14B4  
                                    u701 1D72                                      u710 1B10  
                                    u711 1B0C                                      u720 1B32  
                                    u800 1770                                      u721 1B2E  
                                    u801 176C                                      u650 13C8  
                                    u634 1312                                      u570 140C  
                                    u730 1CB8                                      u651 13C2  
                                    u635 130E                                      u571 1408  
                                    u731 1CB4                                      u660 13CA  
                                    u644 1374                                      u580 142E  
                                    u820 1538                                      u740 1F06  
                                    u900 16FA                                      u645 1370  
                                    u581 142A                                      u821 1534  
                                    u741 1F02                                      u901 16F6  
                                    u750 188E                                      u670 1AA8  
                                    u830 1586                                      u814 17C6  
                                    u910 1722                                      u751 188A  
                                    u671 1AA4                                      u831 1582  
                                    u815 17C2                                      u911 171E  
                                    u760 18C6                                      u840 1C52  
                                    u920 17F4                                      u761 18C2  
                                    u841 1C4E                                      u921 17F0  
                                    u594 1456                                      u770 190C  
                                    u690 1AFA                                      u850 1A26  
                                    u930 1804                                      u595 1452  
                                    u771 1908                                      u691 1AF6  
                                    u851 1A22                                      u931 1800  
                                    u684 1AD6                                      u780 173C  
                                    u940 1814                                      u685 1AD2  
                                    u781 1738                                      u941 1810  
                                    u790 174E                                      u870 1658  
                                    u950 1D1E                                      u791 174A  
                                    u871 1654                                      u951 1D1A  
                                    u880 166A                                      u960 1D5C  
                                    u865 1A7E                                      u881 1666  
                                    u961 1D58                                      u890 16BA  
                                    u970 1E86                                      u867 1A80  
                                    u891 16B6                                      u971 1E82  
                                    u980 1E46                                      u981 1E42  
                                    u990 1EC6                                      u991 1EC2  
                      ??_motor_intialize 0045                                      _lcd 002C  
                                    _ret 0024                                      prod 000FF3  
                                    wreg 000FE8                             ?_led_turn_on 003F  
                                   l2001 10D4                                     l2003 10F2  
                                   l2011 113A                                     l2021 11BA  
                                   l2013 115A                                     l2005 1108  
                                   l2031 1212                                     l2023 11CC  
                                   l2015 1178                                     l2007 1116  
                                   l2033 1214                                     l2017 1196  
                                   l2025 11E2                                     l2009 1124  
                                   l2035 125C                                     l2019 11AC  
                                   l2027 11F2                                     l2053 185E  
                                   l2037 1278                                     l2029 1202  
                                   l2055 1508                                     l1511 13F6  
                                   l2039 1290                                     l2057 13DC  
                                   l1521 1498                                     l1513 13FA  
                                   l1601 1B3A                                     l1515 140C  
                                   l1603 1B66                                     l1611 1CB8  
                                   l1541 12EA                                     l1525 14F4  
                                   l1517 142E                                     l1621 1CF6  
                                   l1613 1CB8                                     l1701 1558  
                                   l1543 12F2                                     l1551 13F2  
                                   l1535 12B2                                     l1519 1436  
                                   l1527 151E                                     l1615 1CC8  
                                   l1623 1D04                                     l1607 1CA2  
                                   l1711 15A6                                     l1703 1574  
                                   l1631 1F06                                     l1545 1354  
                                   l1537 12B6                                     l1641 187C  
                                   l1561 1A96                                     l1617 1CDA  
                                   l1609 1CA6                                     l1721 15FC  
                                   l1713 15C6                                     l1705 1576  
                                   l1633 1F06                                     l1801 16FA  
                                   l1539 12C8                                     l1651 18A6  
                                   l1643 188E                                     l1571 1AE8  
                                   l1563 1AA8                                     l1619 1CE6  
                                   l1723 160C                                     l1715 15CC  
                                   l1707 1586                                     l1635 1F12  
                                   l1627 1EF0                                     l1803 1710  
                                   l1811 17DE                                     l1549 13B0  
                                   l1661 18CE                                     l1653 18AA  
                                   l1573 1AEA                                     l1581 1D64  
                                   l1725 161C                                     l1717 15DC  
                                   l1709 1596                                     l1629 1EF4  
                                   l1805 1712                                     l1741 1C62  
                                   l1733 1C3C                                     l1821 181A  
                                   l1813 17E2                                     l1663 18EC  
                                   l1655 18C6                                     l1639 1878  
                                   l1575 1AFA                                     l1559 1A92  
                                   l1583 1D76                                     l1727 162C  
                                   l1719 15EC                                     l1671 1726  
                                   l1807 1722                                     l1743 1C74  
                                   l1735 1C40                                     l1823 1832  
                                   l1815 17F4                                     l1911 1DD4  
                                   l1903 1DAA                                     l1593 1AFE  
                                   l1665 18F0                                     l1649 1896  
                                   l1569 1AAC                                     l1585 1D76  
                                   l1729 163E                                     l1761 1A6C  
                                   l1753 1A14                                     l1681 1778  
                                   l1673 172A                                     l1745 1C80  
                                   l1737 1C52                                     l1817 1804  
                                   l1841 1D1E                                     l1913 1DEA  
                                   l1905 1DAE                                     l1921 1922  
                                   l1595 1AFE                                     l1667 190C  
                                   l1587 1D8A                                     l1579 1D60  
                                   l1691 1538                                     l1763 1A6E  
                                   l1755 1A14                                     l1851 1DEE  
                                   l1683 17DA                                     l1675 173C  
                                   l1771 1642                                     l1747 1C90  
                                   l1739 1C52                                     l1827 184A  
                                   l1819 1814                                     l1843 1D22  
                                   l1907 1DC0                                     l1923 192E  
                                   l1931 198E                                     l1597 1B10  
                                   l1589 1D90                                     l1693 1538  
                                   l1765 1A80                                     l1757 1A26  
                                   l1861 1E1E                                     l1853 1DEE  
                                   l1677 174E                                     l1773 1646  
                                   l1749 1C9E                                     l1829 1874  
                                   l1845 1D3C                                     l1837 1D08  
                                   l1909 1DC0                                     l1941 19B0  
                                   l1925 1968                                     l1917 1910  
                                   l1599 1B32                                     l1695 1544  
                                   l1687 1522                                     l1759 1A32  
                                   l1767 1A8E                                     l1863 1E2C  
                                   l1855 1DFA                                     l1679 1770  
                                   l1791 1686                                     l1783 166E  
                                   l1775 1658                                     l1847 1D5C  
                                   l1839 1D0C                                     l1943 19EA  
                                   l1935 1992                                     l1927 196A  
                                   l1919 1910                                     l1871 1E86  
                                   l1689 1526                                     l1857 1E06  
                                   l1953 1F92                                     l1793 16AA  
                                   l1785 1682                                     l1777 166A  
                                   l1961 1C0A                                     l1945 19EC  
                                   l1937 1992                                     l1929 197C  
                                   l1873 1E86                                     l1881 1E34  
                                   l1859 1E12                                     l1795 16BA  
                                   l1955 1BD4                                     l1891 1EB0  
                                   l1947 19FE                                     l1939 19A4  
                                   l1875 1E96                                     l1867 1E70  
                                   l1883 1E46                                     l1981 1B88  
                                   l1797 16E8                                     l1965 1C10  
                                   l1957 1BEA                                     l1893 1EB4  
                                   l1949 1A10                                     l1869 1E74  
                                   l1885 1E46                                     l1983 1B98  
                                   l1799 16EA                                     l1967 1C26  
                                   l1959 1BFA                                     l1895 1EC6  
                                   l1887 1E56                                     l1879 1E30  
                                   l1991 1068                                     l1985 1BA2  
                                   l1977 1B6A                                     l1969 1C38  
                                   l1897 1EC6                                     l1993 106E  
                                   l1979 1B7A                                     l1899 1EDA  
                                   l1995 1080                                     l1987 104E  
                                   l1997 1088                                     l1989 1052  
                                   l1999 10A6                                     STR_1 1033  
                                   STR_2 1043                                     STR_3 100D  
                                   STR_4 1021                                     STR_5 1033  
                                   u1000 1DC0                                     u1001 1DBC  
                                   u1010 1922                                     u1011 191E  
                                   u1100 10A6                                     u1101 10A2  
                                   u1030 19A4                                     u1110 1202  
                                   u1031 19A0                                     u1111 11FE  
                                   u1120 1212                                     u1025 197A  
                                   u1121 120E                                     u1050 1C0A  
                                   u1051 1C06                                     u1027 197C  
                                   u1060 1C38                                     u1061 1C34  
                                   u1045 19FC                                     u1070 1B88  
                                   u1071 1B84                                     u1047 19FE  
                                   u1080 1BC2                                     u1081 1BBE  
                                   u1137 10FC                                     u1090 1080  
                                   u1147 11A0                                     u1091 107C  
                                   u1157 1282                                     _LATA 000F89  
                                   _LATB 000F8A                                     u1167 1BF0  
                                   _LATC 000F8B                                     _LATD 000F8C  
                                   u1177 158C                                     _LATE 000F8D  
                                   u1187 15AC                                     u1197 15C8  
                   _lcd_4bit_send_string 1D08                  ??_application_intialize 0053  
         gpio_pin_read_logic@_pin_config 0035                                     _main 104E  
                                   fsr2h 000FDA                                     indf2 000FDF  
                                   fsr1l 000FE1                                     fsr2l 000FD9  
                                   prodl 000FF3                                     start 0000  
                          ?_led_turn_off 003F                   __end_of_led_intialiaze 1A92  
                           ___param_bank 000000                    _lcd_4bit_send_command 1CA2  
                   _gpio_pin_write_logic 13F6           lcd_4bit_send_string_pos@colomn 0056  
                 keypad_get_value@keypad 003F                    lcd_4bit_intialize@lcd 004C  
                  lcd_4bit_intialize@pin 0050                    lcd_4bit_intialize@ret 0051  
                      ?_motor_move_right 003F           lcd_4bit_send_string_pos@string 0057  
                                  ?_main 0035                       ??_motor_move_right 0041  
                                  _PORTA 000F80                                    _PORTB 000F81  
                                  _PORTC 000F82                                    _PORTD 000F83  
                                  _PORTE 000F84                                    _TRISA 000F92  
                                  _TRISB 000F93                                    _TRISC 000F94  
                                  _TRISD 000F95                                    _TRISE 000F96  
              lcd_4bit_set_cursor@colomn 004F                      ___lmul@multiplicand 0039  
               __end_of_keypad_get_value 1726                                    _motor 0032  
                  ?_lcd_4bit_send_string 004C                                    tablat 000FF5  
                                  status 000FD8             lcd_4bit_send_char_pos@colomn 0056  
                         ??_led_turn_off 0041                 __end_of_keypad_intialize 1910  
                        ??_lcd_send_4bit 0042                          ?_led_intialiaze 0043  
                 _lcd_4bit_send_char_pos 1EB0                          __initialization 1F28  
                    keypad_get_value@col 0047                      keypad_get_value@ret 0045  
                           __end_of_main 12B2                    ?_gpio_pin_write_logic 0035  
               gpio_pin_read_logic@logic 0037                            _lat_registers 0001  
                                 ??_main 005A                            __activetblptr 000002  
                       led_turn_on@F3030 0062               led_turn_off@pin_config_obj 0043  
       __end_of_lcd_4bit_send_string_pos 1DEE                   ?_lcd_4bit_send_command 0048  
                                 ___lmul 1B6A                                   _keypad 0025  
                                 clear_0 1F4E                                   isa$std 000001  
                       lcd_send_4bit@lcd 003F                         lcd_send_4bit@ret 0046  
gpio_pin_direction_intialize@_pin_config 0035                             __pdataCOMRAM 0001  
                           __mediumconst 0000                                   tblptrh 000FF7  
                                 tblptrl 000FF6                                   tblptru 000FF8  
                 ??_lcd_4bit_send_string 0050               lcd_4bit_send_string@string 004E  
               ?_send_4bit_enable_signal 003F                         _entered_password 005C  
                             __accesstop 0080                  __end_of__initialization 1F54  
                          ___rparam_used 000001                   ??_gpio_pin_write_logic 0038  
                         __pcstackCOMRAM 0035                          _motor_intialize 1EF0  
                  lcd_4bit_send_char@lcd 0048                    lcd_4bit_send_char@ret 004B  
                   keypad_get_value@rows 0048                 lcd_4bit_send_command@lcd 0048  
               lcd_4bit_send_command@ret 004B                     __end_of_led_turn_off 1A14  
                lcd_4bit_send_string@lcd 004C                  lcd_4bit_send_string@ret 0050  
            keypad_intialize@col_counter 004A                               __pnvCOMRAM 0065  
          __end_of_application_intialize 1F9A                                  ?___lmul 0035  
                      led_turn_off@F3035 0061                           ___lmul@product 003D  
              led_turn_on@pin_config_obj 0043                            _keypad_matrix 1001  
              ?_lcd_4bit_send_string_pos 0053                        ?_keypad_get_value 003F  
                             _led_locked 0064                               _led_opened 0034  
                     ??_keypad_get_value 0043                           _tris_registers 0015  
                       ??_led_intialiaze 0045                  __end_of_motor_intialize 1F28  
                ?_lcd_4bit_send_char_pos 0053                                  __Hparam 0000  
                                __Lparam 0000                        ?_keypad_intialize 0043  
                    _ecu_layer_intialize 1DEE                       ??_keypad_intialize 0045  
                    _gpio_pin_read_logic 1726                             __psmallconst 1000  
                      led_intialiaze@led 0043                        led_intialiaze@ret 0046  
             __end_of_gpio_pin_intialize 1B6A                                  __pcinit 1F28  
                                __ramtop 1000                                  __ptext0 104E  
                                __ptext1 1E30                                  __ptext2 1E70  
                                __ptext3 1910                                  __ptext4 1992  
                                __ptext5 1DAA                                  __ptext6 1D08  
                                __ptext7 1EB0                                  __ptext8 17DE  
                                __ptext9 1C3C                     ?_ecu_layer_intialize 0035  
         keypad_read_value@current_value 004A                        lcd_send_4bit@data 0041  
                   ?_gpio_pin_read_logic 0035                     end_of_initialization 1F54  
         __end_of_lcd_4bit_send_char_pos 1EF0                            __Lmediumconst 0000  
             __end_of_lcd_4bit_intialize 1642                  ??_lcd_4bit_send_command 004B  
                  gpio_pin_intialize@ret 0042               __end_of_lcd_4bit_send_char 1CA2  
                  __end_of_lcd_send_4bit 1AFE                                  postdec1 000FE5  
                                postdec2 000FDD                                  postinc0 000FEE  
                                postinc2 000FDE                               _motor_stop 1E30  
          gpio_pin_intialize@_pin_config 003F                      motor_move_right@ret 0041  
                  ??_ecu_layer_intialize 0052     __end_of_gpio_pin_direction_intialize 13F6  
           _gpio_pin_direction_intialize 12B2                    ??_gpio_pin_read_logic 0039  
                       ?_motor_intialize 0043               lcd_4bit_send_char_pos@data 0057  
                           _led_turn_off 1992                      _lcd_4bit_set_cursor 17DE  
                 lcd_4bit_send_char@data 004A              lcd_4bit_send_string_pos@lcd 0053  
            lcd_4bit_send_string_pos@ret 0059                    keypad_get_value@logic 0046  
            lcd_4bit_send_string_pos@row 0055                    keypad_get_value@value 0041  
             keypad_read_value@new_value 004B                           __end_of___lmul 1BD4  
                          __pidataCOMRAM 1F5E                      start_initialization 1F28  
                          ??_led_turn_on 0041                     ?_lcd_4bit_set_cursor 004C  
          ?_gpio_pin_direction_intialize 0035                         _motor_move_right 1E70  
                        led_turn_off@led 003F                          led_turn_off@ret 0042  
                    keypad_intialize@ret 0047                                 ??___lmul 003D  
                            ?_motor_stop 003F             lcd_4bit_send_command@command 004A  
                            __pbssCOMRAM 005C                    ??_lcd_4bit_set_cursor 0050  
                    led_intialiaze@F3025 0063                         _number_of_clicks 0060  
                    __end_of_led_turn_on 1992          gpio_pin_direction_intialize@ret 003D  
                 ecu_layer_intialize@ret 0052                    _application_intialize 1F92  
        gpio_pin_write_logic@_pin_config 0035                gpio_pin_write_logic@logic 0037  
                           _keypad_value 0065                              __smallconst 1000  
                     _gpio_pin_intialize 1AFE                          motor_stop@motor 003F  
         ??_gpio_pin_direction_intialize 0037                      ?_gpio_pin_intialize 003F  
          __end_of_lcd_4bit_send_command 1D08                  _send_4bit_enable_signal 1D60  
                     _lcd_4bit_intialize 1522                   keypad_intialize@keypad 0043  
               _lcd_4bit_send_string_pos 1DAA                     ??_gpio_pin_intialize 0041  
                     _lcd_4bit_send_char 1C3C                      ?_lcd_4bit_intialize 004C  
                            _led_turn_on 1910                     motor_intialize@motor 0043  
                gpio_pin_write_logic@ret 003E                      ?_lcd_4bit_send_char 0048  
                      ___lmul@multiplier 0035                                copy_data0 1F3C  
                      _keypad_read_value 1BD4                   gpio_pin_read_logic@ret 003E  
                     ?_keypad_read_value 0035                   ?_application_intialize 0035  
                   ??_lcd_4bit_intialize 004E                           led_turn_on@led 003F  
                         led_turn_on@ret 0042                                 __Hrparam 0000  
                               __Lrparam 0000                      ??_keypad_read_value 0049  
                   ??_lcd_4bit_send_char 004B                 __end_of_motor_move_right 1EB0  
                 lcd_4bit_set_cursor@lcd 004C              __end_of_ecu_layer_intialize 1E30  
                 lcd_4bit_set_cursor@ret 0052                   lcd_4bit_set_cursor@row 004E  
            __end_of_gpio_pin_read_logic 17DE                                 __ptext10 1BD4  
                               __ptext11 1642                                 __ptext20 1A92  
                               __ptext12 1726                                 __ptext21 1878  
                               __ptext13 1F92                                 __ptext22 1AFE  
                               __ptext14 1DEE                                 __ptext23 13F6  
                               __ptext15 1EF0                                 __ptext24 12B2  
                               __ptext16 1A14                                 __ptext25 1B6A  
                               __ptext17 1522                                 __ptext18 1CA2  
                               __ptext19 1D60                __end_of_keypad_read_value 1C3C  
           led_intialiaze@pin_config_obj 0047                ??_send_4bit_enable_signal 0041  
                               _password 001F                         _keypad_get_value 1642  
                               isa$xinst 000000             keypad_intialize@rows_counter 0048  
           __end_of_lcd_4bit_send_string 1D60                             ??_motor_stop 0041  
                  __end_of_keypad_matrix 100D                         _keypad_intialize 1878  
               ??_lcd_4bit_send_char_pos 0058             __end_of_gpio_pin_write_logic 1522  
                     __end_of_motor_stop 1E70                            motor_stop@ret 0041  
                          _lcd_send_4bit 1A92                       motor_intialize@ret 0045  
            __end_of_lcd_4bit_set_cursor 1878          __end_of_send_4bit_enable_signal 1DAA  
                 lcd_send_4bit@line_pins 0047                           _port_registers 000B  
                  motor_move_right@motor 003F                lcd_4bit_send_char_pos@lcd 0053  
              lcd_4bit_send_char_pos@ret 0058                lcd_4bit_send_char_pos@row 0055  
             ??_lcd_4bit_send_string_pos 0059  
